
moon-buggy:     file format elf64-x86-64


Disassembly of section .init:

0000000000007000 <_init>:
    7000:	f3 0f 1e fa          	endbr64 
    7004:	48 83 ec 08          	sub    $0x8,%rsp
    7008:	48 8b 05 d1 7f 01 00 	mov    0x17fd1(%rip),%rax        # 1efe0 <__gmon_start__>
    700f:	48 85 c0             	test   %rax,%rax
    7012:	74 02                	je     7016 <_init+0x16>
    7014:	ff d0                	callq  *%rax
    7016:	48 83 c4 08          	add    $0x8,%rsp
    701a:	c3                   	retq   

Disassembly of section .plt:

0000000000007020 <.plt>:
    7020:	ff 35 62 7c 01 00    	pushq  0x17c62(%rip)        # 1ec88 <_GLOBAL_OFFSET_TABLE_+0x8>
    7026:	f2 ff 25 63 7c 01 00 	bnd jmpq *0x17c63(%rip)        # 1ec90 <_GLOBAL_OFFSET_TABLE_+0x10>
    702d:	0f 1f 00             	nopl   (%rax)
    7030:	f3 0f 1e fa          	endbr64 
    7034:	68 00 00 00 00       	pushq  $0x0
    7039:	f2 e9 e1 ff ff ff    	bnd jmpq 7020 <.plt>
    703f:	90                   	nop
    7040:	f3 0f 1e fa          	endbr64 
    7044:	68 01 00 00 00       	pushq  $0x1
    7049:	f2 e9 d1 ff ff ff    	bnd jmpq 7020 <.plt>
    704f:	90                   	nop
    7050:	f3 0f 1e fa          	endbr64 
    7054:	68 02 00 00 00       	pushq  $0x2
    7059:	f2 e9 c1 ff ff ff    	bnd jmpq 7020 <.plt>
    705f:	90                   	nop
    7060:	f3 0f 1e fa          	endbr64 
    7064:	68 03 00 00 00       	pushq  $0x3
    7069:	f2 e9 b1 ff ff ff    	bnd jmpq 7020 <.plt>
    706f:	90                   	nop
    7070:	f3 0f 1e fa          	endbr64 
    7074:	68 04 00 00 00       	pushq  $0x4
    7079:	f2 e9 a1 ff ff ff    	bnd jmpq 7020 <.plt>
    707f:	90                   	nop
    7080:	f3 0f 1e fa          	endbr64 
    7084:	68 05 00 00 00       	pushq  $0x5
    7089:	f2 e9 91 ff ff ff    	bnd jmpq 7020 <.plt>
    708f:	90                   	nop
    7090:	f3 0f 1e fa          	endbr64 
    7094:	68 06 00 00 00       	pushq  $0x6
    7099:	f2 e9 81 ff ff ff    	bnd jmpq 7020 <.plt>
    709f:	90                   	nop
    70a0:	f3 0f 1e fa          	endbr64 
    70a4:	68 07 00 00 00       	pushq  $0x7
    70a9:	f2 e9 71 ff ff ff    	bnd jmpq 7020 <.plt>
    70af:	90                   	nop
    70b0:	f3 0f 1e fa          	endbr64 
    70b4:	68 08 00 00 00       	pushq  $0x8
    70b9:	f2 e9 61 ff ff ff    	bnd jmpq 7020 <.plt>
    70bf:	90                   	nop
    70c0:	f3 0f 1e fa          	endbr64 
    70c4:	68 09 00 00 00       	pushq  $0x9
    70c9:	f2 e9 51 ff ff ff    	bnd jmpq 7020 <.plt>
    70cf:	90                   	nop
    70d0:	f3 0f 1e fa          	endbr64 
    70d4:	68 0a 00 00 00       	pushq  $0xa
    70d9:	f2 e9 41 ff ff ff    	bnd jmpq 7020 <.plt>
    70df:	90                   	nop
    70e0:	f3 0f 1e fa          	endbr64 
    70e4:	68 0b 00 00 00       	pushq  $0xb
    70e9:	f2 e9 31 ff ff ff    	bnd jmpq 7020 <.plt>
    70ef:	90                   	nop
    70f0:	f3 0f 1e fa          	endbr64 
    70f4:	68 0c 00 00 00       	pushq  $0xc
    70f9:	f2 e9 21 ff ff ff    	bnd jmpq 7020 <.plt>
    70ff:	90                   	nop
    7100:	f3 0f 1e fa          	endbr64 
    7104:	68 0d 00 00 00       	pushq  $0xd
    7109:	f2 e9 11 ff ff ff    	bnd jmpq 7020 <.plt>
    710f:	90                   	nop
    7110:	f3 0f 1e fa          	endbr64 
    7114:	68 0e 00 00 00       	pushq  $0xe
    7119:	f2 e9 01 ff ff ff    	bnd jmpq 7020 <.plt>
    711f:	90                   	nop
    7120:	f3 0f 1e fa          	endbr64 
    7124:	68 0f 00 00 00       	pushq  $0xf
    7129:	f2 e9 f1 fe ff ff    	bnd jmpq 7020 <.plt>
    712f:	90                   	nop
    7130:	f3 0f 1e fa          	endbr64 
    7134:	68 10 00 00 00       	pushq  $0x10
    7139:	f2 e9 e1 fe ff ff    	bnd jmpq 7020 <.plt>
    713f:	90                   	nop
    7140:	f3 0f 1e fa          	endbr64 
    7144:	68 11 00 00 00       	pushq  $0x11
    7149:	f2 e9 d1 fe ff ff    	bnd jmpq 7020 <.plt>
    714f:	90                   	nop
    7150:	f3 0f 1e fa          	endbr64 
    7154:	68 12 00 00 00       	pushq  $0x12
    7159:	f2 e9 c1 fe ff ff    	bnd jmpq 7020 <.plt>
    715f:	90                   	nop
    7160:	f3 0f 1e fa          	endbr64 
    7164:	68 13 00 00 00       	pushq  $0x13
    7169:	f2 e9 b1 fe ff ff    	bnd jmpq 7020 <.plt>
    716f:	90                   	nop
    7170:	f3 0f 1e fa          	endbr64 
    7174:	68 14 00 00 00       	pushq  $0x14
    7179:	f2 e9 a1 fe ff ff    	bnd jmpq 7020 <.plt>
    717f:	90                   	nop
    7180:	f3 0f 1e fa          	endbr64 
    7184:	68 15 00 00 00       	pushq  $0x15
    7189:	f2 e9 91 fe ff ff    	bnd jmpq 7020 <.plt>
    718f:	90                   	nop
    7190:	f3 0f 1e fa          	endbr64 
    7194:	68 16 00 00 00       	pushq  $0x16
    7199:	f2 e9 81 fe ff ff    	bnd jmpq 7020 <.plt>
    719f:	90                   	nop
    71a0:	f3 0f 1e fa          	endbr64 
    71a4:	68 17 00 00 00       	pushq  $0x17
    71a9:	f2 e9 71 fe ff ff    	bnd jmpq 7020 <.plt>
    71af:	90                   	nop
    71b0:	f3 0f 1e fa          	endbr64 
    71b4:	68 18 00 00 00       	pushq  $0x18
    71b9:	f2 e9 61 fe ff ff    	bnd jmpq 7020 <.plt>
    71bf:	90                   	nop
    71c0:	f3 0f 1e fa          	endbr64 
    71c4:	68 19 00 00 00       	pushq  $0x19
    71c9:	f2 e9 51 fe ff ff    	bnd jmpq 7020 <.plt>
    71cf:	90                   	nop
    71d0:	f3 0f 1e fa          	endbr64 
    71d4:	68 1a 00 00 00       	pushq  $0x1a
    71d9:	f2 e9 41 fe ff ff    	bnd jmpq 7020 <.plt>
    71df:	90                   	nop
    71e0:	f3 0f 1e fa          	endbr64 
    71e4:	68 1b 00 00 00       	pushq  $0x1b
    71e9:	f2 e9 31 fe ff ff    	bnd jmpq 7020 <.plt>
    71ef:	90                   	nop
    71f0:	f3 0f 1e fa          	endbr64 
    71f4:	68 1c 00 00 00       	pushq  $0x1c
    71f9:	f2 e9 21 fe ff ff    	bnd jmpq 7020 <.plt>
    71ff:	90                   	nop
    7200:	f3 0f 1e fa          	endbr64 
    7204:	68 1d 00 00 00       	pushq  $0x1d
    7209:	f2 e9 11 fe ff ff    	bnd jmpq 7020 <.plt>
    720f:	90                   	nop
    7210:	f3 0f 1e fa          	endbr64 
    7214:	68 1e 00 00 00       	pushq  $0x1e
    7219:	f2 e9 01 fe ff ff    	bnd jmpq 7020 <.plt>
    721f:	90                   	nop
    7220:	f3 0f 1e fa          	endbr64 
    7224:	68 1f 00 00 00       	pushq  $0x1f
    7229:	f2 e9 f1 fd ff ff    	bnd jmpq 7020 <.plt>
    722f:	90                   	nop
    7230:	f3 0f 1e fa          	endbr64 
    7234:	68 20 00 00 00       	pushq  $0x20
    7239:	f2 e9 e1 fd ff ff    	bnd jmpq 7020 <.plt>
    723f:	90                   	nop
    7240:	f3 0f 1e fa          	endbr64 
    7244:	68 21 00 00 00       	pushq  $0x21
    7249:	f2 e9 d1 fd ff ff    	bnd jmpq 7020 <.plt>
    724f:	90                   	nop
    7250:	f3 0f 1e fa          	endbr64 
    7254:	68 22 00 00 00       	pushq  $0x22
    7259:	f2 e9 c1 fd ff ff    	bnd jmpq 7020 <.plt>
    725f:	90                   	nop
    7260:	f3 0f 1e fa          	endbr64 
    7264:	68 23 00 00 00       	pushq  $0x23
    7269:	f2 e9 b1 fd ff ff    	bnd jmpq 7020 <.plt>
    726f:	90                   	nop
    7270:	f3 0f 1e fa          	endbr64 
    7274:	68 24 00 00 00       	pushq  $0x24
    7279:	f2 e9 a1 fd ff ff    	bnd jmpq 7020 <.plt>
    727f:	90                   	nop
    7280:	f3 0f 1e fa          	endbr64 
    7284:	68 25 00 00 00       	pushq  $0x25
    7289:	f2 e9 91 fd ff ff    	bnd jmpq 7020 <.plt>
    728f:	90                   	nop
    7290:	f3 0f 1e fa          	endbr64 
    7294:	68 26 00 00 00       	pushq  $0x26
    7299:	f2 e9 81 fd ff ff    	bnd jmpq 7020 <.plt>
    729f:	90                   	nop
    72a0:	f3 0f 1e fa          	endbr64 
    72a4:	68 27 00 00 00       	pushq  $0x27
    72a9:	f2 e9 71 fd ff ff    	bnd jmpq 7020 <.plt>
    72af:	90                   	nop
    72b0:	f3 0f 1e fa          	endbr64 
    72b4:	68 28 00 00 00       	pushq  $0x28
    72b9:	f2 e9 61 fd ff ff    	bnd jmpq 7020 <.plt>
    72bf:	90                   	nop
    72c0:	f3 0f 1e fa          	endbr64 
    72c4:	68 29 00 00 00       	pushq  $0x29
    72c9:	f2 e9 51 fd ff ff    	bnd jmpq 7020 <.plt>
    72cf:	90                   	nop
    72d0:	f3 0f 1e fa          	endbr64 
    72d4:	68 2a 00 00 00       	pushq  $0x2a
    72d9:	f2 e9 41 fd ff ff    	bnd jmpq 7020 <.plt>
    72df:	90                   	nop
    72e0:	f3 0f 1e fa          	endbr64 
    72e4:	68 2b 00 00 00       	pushq  $0x2b
    72e9:	f2 e9 31 fd ff ff    	bnd jmpq 7020 <.plt>
    72ef:	90                   	nop
    72f0:	f3 0f 1e fa          	endbr64 
    72f4:	68 2c 00 00 00       	pushq  $0x2c
    72f9:	f2 e9 21 fd ff ff    	bnd jmpq 7020 <.plt>
    72ff:	90                   	nop
    7300:	f3 0f 1e fa          	endbr64 
    7304:	68 2d 00 00 00       	pushq  $0x2d
    7309:	f2 e9 11 fd ff ff    	bnd jmpq 7020 <.plt>
    730f:	90                   	nop
    7310:	f3 0f 1e fa          	endbr64 
    7314:	68 2e 00 00 00       	pushq  $0x2e
    7319:	f2 e9 01 fd ff ff    	bnd jmpq 7020 <.plt>
    731f:	90                   	nop
    7320:	f3 0f 1e fa          	endbr64 
    7324:	68 2f 00 00 00       	pushq  $0x2f
    7329:	f2 e9 f1 fc ff ff    	bnd jmpq 7020 <.plt>
    732f:	90                   	nop
    7330:	f3 0f 1e fa          	endbr64 
    7334:	68 30 00 00 00       	pushq  $0x30
    7339:	f2 e9 e1 fc ff ff    	bnd jmpq 7020 <.plt>
    733f:	90                   	nop
    7340:	f3 0f 1e fa          	endbr64 
    7344:	68 31 00 00 00       	pushq  $0x31
    7349:	f2 e9 d1 fc ff ff    	bnd jmpq 7020 <.plt>
    734f:	90                   	nop
    7350:	f3 0f 1e fa          	endbr64 
    7354:	68 32 00 00 00       	pushq  $0x32
    7359:	f2 e9 c1 fc ff ff    	bnd jmpq 7020 <.plt>
    735f:	90                   	nop
    7360:	f3 0f 1e fa          	endbr64 
    7364:	68 33 00 00 00       	pushq  $0x33
    7369:	f2 e9 b1 fc ff ff    	bnd jmpq 7020 <.plt>
    736f:	90                   	nop
    7370:	f3 0f 1e fa          	endbr64 
    7374:	68 34 00 00 00       	pushq  $0x34
    7379:	f2 e9 a1 fc ff ff    	bnd jmpq 7020 <.plt>
    737f:	90                   	nop
    7380:	f3 0f 1e fa          	endbr64 
    7384:	68 35 00 00 00       	pushq  $0x35
    7389:	f2 e9 91 fc ff ff    	bnd jmpq 7020 <.plt>
    738f:	90                   	nop
    7390:	f3 0f 1e fa          	endbr64 
    7394:	68 36 00 00 00       	pushq  $0x36
    7399:	f2 e9 81 fc ff ff    	bnd jmpq 7020 <.plt>
    739f:	90                   	nop
    73a0:	f3 0f 1e fa          	endbr64 
    73a4:	68 37 00 00 00       	pushq  $0x37
    73a9:	f2 e9 71 fc ff ff    	bnd jmpq 7020 <.plt>
    73af:	90                   	nop
    73b0:	f3 0f 1e fa          	endbr64 
    73b4:	68 38 00 00 00       	pushq  $0x38
    73b9:	f2 e9 61 fc ff ff    	bnd jmpq 7020 <.plt>
    73bf:	90                   	nop
    73c0:	f3 0f 1e fa          	endbr64 
    73c4:	68 39 00 00 00       	pushq  $0x39
    73c9:	f2 e9 51 fc ff ff    	bnd jmpq 7020 <.plt>
    73cf:	90                   	nop
    73d0:	f3 0f 1e fa          	endbr64 
    73d4:	68 3a 00 00 00       	pushq  $0x3a
    73d9:	f2 e9 41 fc ff ff    	bnd jmpq 7020 <.plt>
    73df:	90                   	nop
    73e0:	f3 0f 1e fa          	endbr64 
    73e4:	68 3b 00 00 00       	pushq  $0x3b
    73e9:	f2 e9 31 fc ff ff    	bnd jmpq 7020 <.plt>
    73ef:	90                   	nop
    73f0:	f3 0f 1e fa          	endbr64 
    73f4:	68 3c 00 00 00       	pushq  $0x3c
    73f9:	f2 e9 21 fc ff ff    	bnd jmpq 7020 <.plt>
    73ff:	90                   	nop
    7400:	f3 0f 1e fa          	endbr64 
    7404:	68 3d 00 00 00       	pushq  $0x3d
    7409:	f2 e9 11 fc ff ff    	bnd jmpq 7020 <.plt>
    740f:	90                   	nop
    7410:	f3 0f 1e fa          	endbr64 
    7414:	68 3e 00 00 00       	pushq  $0x3e
    7419:	f2 e9 01 fc ff ff    	bnd jmpq 7020 <.plt>
    741f:	90                   	nop
    7420:	f3 0f 1e fa          	endbr64 
    7424:	68 3f 00 00 00       	pushq  $0x3f
    7429:	f2 e9 f1 fb ff ff    	bnd jmpq 7020 <.plt>
    742f:	90                   	nop
    7430:	f3 0f 1e fa          	endbr64 
    7434:	68 40 00 00 00       	pushq  $0x40
    7439:	f2 e9 e1 fb ff ff    	bnd jmpq 7020 <.plt>
    743f:	90                   	nop
    7440:	f3 0f 1e fa          	endbr64 
    7444:	68 41 00 00 00       	pushq  $0x41
    7449:	f2 e9 d1 fb ff ff    	bnd jmpq 7020 <.plt>
    744f:	90                   	nop
    7450:	f3 0f 1e fa          	endbr64 
    7454:	68 42 00 00 00       	pushq  $0x42
    7459:	f2 e9 c1 fb ff ff    	bnd jmpq 7020 <.plt>
    745f:	90                   	nop
    7460:	f3 0f 1e fa          	endbr64 
    7464:	68 43 00 00 00       	pushq  $0x43
    7469:	f2 e9 b1 fb ff ff    	bnd jmpq 7020 <.plt>
    746f:	90                   	nop
    7470:	f3 0f 1e fa          	endbr64 
    7474:	68 44 00 00 00       	pushq  $0x44
    7479:	f2 e9 a1 fb ff ff    	bnd jmpq 7020 <.plt>
    747f:	90                   	nop
    7480:	f3 0f 1e fa          	endbr64 
    7484:	68 45 00 00 00       	pushq  $0x45
    7489:	f2 e9 91 fb ff ff    	bnd jmpq 7020 <.plt>
    748f:	90                   	nop
    7490:	f3 0f 1e fa          	endbr64 
    7494:	68 46 00 00 00       	pushq  $0x46
    7499:	f2 e9 81 fb ff ff    	bnd jmpq 7020 <.plt>
    749f:	90                   	nop
    74a0:	f3 0f 1e fa          	endbr64 
    74a4:	68 47 00 00 00       	pushq  $0x47
    74a9:	f2 e9 71 fb ff ff    	bnd jmpq 7020 <.plt>
    74af:	90                   	nop
    74b0:	f3 0f 1e fa          	endbr64 
    74b4:	68 48 00 00 00       	pushq  $0x48
    74b9:	f2 e9 61 fb ff ff    	bnd jmpq 7020 <.plt>
    74bf:	90                   	nop
    74c0:	f3 0f 1e fa          	endbr64 
    74c4:	68 49 00 00 00       	pushq  $0x49
    74c9:	f2 e9 51 fb ff ff    	bnd jmpq 7020 <.plt>
    74cf:	90                   	nop
    74d0:	f3 0f 1e fa          	endbr64 
    74d4:	68 4a 00 00 00       	pushq  $0x4a
    74d9:	f2 e9 41 fb ff ff    	bnd jmpq 7020 <.plt>
    74df:	90                   	nop
    74e0:	f3 0f 1e fa          	endbr64 
    74e4:	68 4b 00 00 00       	pushq  $0x4b
    74e9:	f2 e9 31 fb ff ff    	bnd jmpq 7020 <.plt>
    74ef:	90                   	nop
    74f0:	f3 0f 1e fa          	endbr64 
    74f4:	68 4c 00 00 00       	pushq  $0x4c
    74f9:	f2 e9 21 fb ff ff    	bnd jmpq 7020 <.plt>
    74ff:	90                   	nop
    7500:	f3 0f 1e fa          	endbr64 
    7504:	68 4d 00 00 00       	pushq  $0x4d
    7509:	f2 e9 11 fb ff ff    	bnd jmpq 7020 <.plt>
    750f:	90                   	nop
    7510:	f3 0f 1e fa          	endbr64 
    7514:	68 4e 00 00 00       	pushq  $0x4e
    7519:	f2 e9 01 fb ff ff    	bnd jmpq 7020 <.plt>
    751f:	90                   	nop
    7520:	f3 0f 1e fa          	endbr64 
    7524:	68 4f 00 00 00       	pushq  $0x4f
    7529:	f2 e9 f1 fa ff ff    	bnd jmpq 7020 <.plt>
    752f:	90                   	nop
    7530:	f3 0f 1e fa          	endbr64 
    7534:	68 50 00 00 00       	pushq  $0x50
    7539:	f2 e9 e1 fa ff ff    	bnd jmpq 7020 <.plt>
    753f:	90                   	nop
    7540:	f3 0f 1e fa          	endbr64 
    7544:	68 51 00 00 00       	pushq  $0x51
    7549:	f2 e9 d1 fa ff ff    	bnd jmpq 7020 <.plt>
    754f:	90                   	nop
    7550:	f3 0f 1e fa          	endbr64 
    7554:	68 52 00 00 00       	pushq  $0x52
    7559:	f2 e9 c1 fa ff ff    	bnd jmpq 7020 <.plt>
    755f:	90                   	nop
    7560:	f3 0f 1e fa          	endbr64 
    7564:	68 53 00 00 00       	pushq  $0x53
    7569:	f2 e9 b1 fa ff ff    	bnd jmpq 7020 <.plt>
    756f:	90                   	nop
    7570:	f3 0f 1e fa          	endbr64 
    7574:	68 54 00 00 00       	pushq  $0x54
    7579:	f2 e9 a1 fa ff ff    	bnd jmpq 7020 <.plt>
    757f:	90                   	nop
    7580:	f3 0f 1e fa          	endbr64 
    7584:	68 55 00 00 00       	pushq  $0x55
    7589:	f2 e9 91 fa ff ff    	bnd jmpq 7020 <.plt>
    758f:	90                   	nop
    7590:	f3 0f 1e fa          	endbr64 
    7594:	68 56 00 00 00       	pushq  $0x56
    7599:	f2 e9 81 fa ff ff    	bnd jmpq 7020 <.plt>
    759f:	90                   	nop
    75a0:	f3 0f 1e fa          	endbr64 
    75a4:	68 57 00 00 00       	pushq  $0x57
    75a9:	f2 e9 71 fa ff ff    	bnd jmpq 7020 <.plt>
    75af:	90                   	nop
    75b0:	f3 0f 1e fa          	endbr64 
    75b4:	68 58 00 00 00       	pushq  $0x58
    75b9:	f2 e9 61 fa ff ff    	bnd jmpq 7020 <.plt>
    75bf:	90                   	nop
    75c0:	f3 0f 1e fa          	endbr64 
    75c4:	68 59 00 00 00       	pushq  $0x59
    75c9:	f2 e9 51 fa ff ff    	bnd jmpq 7020 <.plt>
    75cf:	90                   	nop
    75d0:	f3 0f 1e fa          	endbr64 
    75d4:	68 5a 00 00 00       	pushq  $0x5a
    75d9:	f2 e9 41 fa ff ff    	bnd jmpq 7020 <.plt>
    75df:	90                   	nop
    75e0:	f3 0f 1e fa          	endbr64 
    75e4:	68 5b 00 00 00       	pushq  $0x5b
    75e9:	f2 e9 31 fa ff ff    	bnd jmpq 7020 <.plt>
    75ef:	90                   	nop
    75f0:	f3 0f 1e fa          	endbr64 
    75f4:	68 5c 00 00 00       	pushq  $0x5c
    75f9:	f2 e9 21 fa ff ff    	bnd jmpq 7020 <.plt>
    75ff:	90                   	nop
    7600:	f3 0f 1e fa          	endbr64 
    7604:	68 5d 00 00 00       	pushq  $0x5d
    7609:	f2 e9 11 fa ff ff    	bnd jmpq 7020 <.plt>
    760f:	90                   	nop
    7610:	f3 0f 1e fa          	endbr64 
    7614:	68 5e 00 00 00       	pushq  $0x5e
    7619:	f2 e9 01 fa ff ff    	bnd jmpq 7020 <.plt>
    761f:	90                   	nop
    7620:	f3 0f 1e fa          	endbr64 
    7624:	68 5f 00 00 00       	pushq  $0x5f
    7629:	f2 e9 f1 f9 ff ff    	bnd jmpq 7020 <.plt>
    762f:	90                   	nop
    7630:	f3 0f 1e fa          	endbr64 
    7634:	68 60 00 00 00       	pushq  $0x60
    7639:	f2 e9 e1 f9 ff ff    	bnd jmpq 7020 <.plt>
    763f:	90                   	nop
    7640:	f3 0f 1e fa          	endbr64 
    7644:	68 61 00 00 00       	pushq  $0x61
    7649:	f2 e9 d1 f9 ff ff    	bnd jmpq 7020 <.plt>
    764f:	90                   	nop
    7650:	f3 0f 1e fa          	endbr64 
    7654:	68 62 00 00 00       	pushq  $0x62
    7659:	f2 e9 c1 f9 ff ff    	bnd jmpq 7020 <.plt>
    765f:	90                   	nop
    7660:	f3 0f 1e fa          	endbr64 
    7664:	68 63 00 00 00       	pushq  $0x63
    7669:	f2 e9 b1 f9 ff ff    	bnd jmpq 7020 <.plt>
    766f:	90                   	nop
    7670:	f3 0f 1e fa          	endbr64 
    7674:	68 64 00 00 00       	pushq  $0x64
    7679:	f2 e9 a1 f9 ff ff    	bnd jmpq 7020 <.plt>
    767f:	90                   	nop
    7680:	f3 0f 1e fa          	endbr64 
    7684:	68 65 00 00 00       	pushq  $0x65
    7689:	f2 e9 91 f9 ff ff    	bnd jmpq 7020 <.plt>
    768f:	90                   	nop
    7690:	f3 0f 1e fa          	endbr64 
    7694:	68 66 00 00 00       	pushq  $0x66
    7699:	f2 e9 81 f9 ff ff    	bnd jmpq 7020 <.plt>
    769f:	90                   	nop

Disassembly of section .plt.got:

00000000000076a0 <__cxa_finalize@plt>:
    76a0:	f3 0f 1e fa          	endbr64 
    76a4:	f2 ff 25 45 79 01 00 	bnd jmpq *0x17945(%rip)        # 1eff0 <__cxa_finalize@GLIBC_2.2.5>
    76ab:	0f 1f 44 00 00       	nopl   0x0(%rax,%rax,1)

Disassembly of section .plt.sec:

00000000000076b0 <wattrset@plt>:
    76b0:	f3 0f 1e fa          	endbr64 
    76b4:	f2 ff 25 dd 75 01 00 	bnd jmpq *0x175dd(%rip)        # 1ec98 <wattrset@NCURSES6_5.0.19991023>
    76bb:	0f 1f 44 00 00       	nopl   0x0(%rax,%rax,1)

00000000000076c0 <werase@plt>:
    76c0:	f3 0f 1e fa          	endbr64 
    76c4:	f2 ff 25 d5 75 01 00 	bnd jmpq *0x175d5(%rip)        # 1eca0 <werase@NCURSES6_5.0.19991023>
    76cb:	0f 1f 44 00 00       	nopl   0x0(%rax,%rax,1)

00000000000076d0 <sigprocmask@plt>:
    76d0:	f3 0f 1e fa          	endbr64 
    76d4:	f2 ff 25 cd 75 01 00 	bnd jmpq *0x175cd(%rip)        # 1eca8 <sigprocmask@GLIBC_2.2.5>
    76db:	0f 1f 44 00 00       	nopl   0x0(%rax,%rax,1)

00000000000076e0 <raise@plt>:
    76e0:	f3 0f 1e fa          	endbr64 
    76e4:	f2 ff 25 c5 75 01 00 	bnd jmpq *0x175c5(%rip)        # 1ecb0 <raise@GLIBC_2.2.5>
    76eb:	0f 1f 44 00 00       	nopl   0x0(%rax,%rax,1)

00000000000076f0 <free@plt>:
    76f0:	f3 0f 1e fa          	endbr64 
    76f4:	f2 ff 25 bd 75 01 00 	bnd jmpq *0x175bd(%rip)        # 1ecb8 <free@GLIBC_2.2.5>
    76fb:	0f 1f 44 00 00       	nopl   0x0(%rax,%rax,1)

0000000000007700 <localtime@plt>:
    7700:	f3 0f 1e fa          	endbr64 
    7704:	f2 ff 25 b5 75 01 00 	bnd jmpq *0x175b5(%rip)        # 1ecc0 <localtime@GLIBC_2.2.5>
    770b:	0f 1f 44 00 00       	nopl   0x0(%rax,%rax,1)

0000000000007710 <__vfprintf_chk@plt>:
    7710:	f3 0f 1e fa          	endbr64 
    7714:	f2 ff 25 ad 75 01 00 	bnd jmpq *0x175ad(%rip)        # 1ecc8 <__vfprintf_chk@GLIBC_2.3.4>
    771b:	0f 1f 44 00 00       	nopl   0x0(%rax,%rax,1)

0000000000007720 <abort@plt>:
    7720:	f3 0f 1e fa          	endbr64 
    7724:	f2 ff 25 a5 75 01 00 	bnd jmpq *0x175a5(%rip)        # 1ecd0 <abort@GLIBC_2.2.5>
    772b:	0f 1f 44 00 00       	nopl   0x0(%rax,%rax,1)

0000000000007730 <__errno_location@plt>:
    7730:	f3 0f 1e fa          	endbr64 
    7734:	f2 ff 25 9d 75 01 00 	bnd jmpq *0x1759d(%rip)        # 1ecd8 <__errno_location@GLIBC_2.2.5>
    773b:	0f 1f 44 00 00       	nopl   0x0(%rax,%rax,1)

0000000000007740 <strncpy@plt>:
    7740:	f3 0f 1e fa          	endbr64 
    7744:	f2 ff 25 95 75 01 00 	bnd jmpq *0x17595(%rip)        # 1ece0 <strncpy@GLIBC_2.2.5>
    774b:	0f 1f 44 00 00       	nopl   0x0(%rax,%rax,1)

0000000000007750 <newwin@plt>:
    7750:	f3 0f 1e fa          	endbr64 
    7754:	f2 ff 25 8d 75 01 00 	bnd jmpq *0x1758d(%rip)        # 1ece8 <newwin@NCURSES6_5.0.19991023>
    775b:	0f 1f 44 00 00       	nopl   0x0(%rax,%rax,1)

0000000000007760 <strcpy@plt>:
    7760:	f3 0f 1e fa          	endbr64 
    7764:	f2 ff 25 85 75 01 00 	bnd jmpq *0x17585(%rip)        # 1ecf0 <strcpy@GLIBC_2.2.5>
    776b:	0f 1f 44 00 00       	nopl   0x0(%rax,%rax,1)

0000000000007770 <__isoc99_fscanf@plt>:
    7770:	f3 0f 1e fa          	endbr64 
    7774:	f2 ff 25 7d 75 01 00 	bnd jmpq *0x1757d(%rip)        # 1ecf8 <__isoc99_fscanf@GLIBC_2.7>
    777b:	0f 1f 44 00 00       	nopl   0x0(%rax,%rax,1)

0000000000007780 <curs_set@plt>:
    7780:	f3 0f 1e fa          	endbr64 
    7784:	f2 ff 25 75 75 01 00 	bnd jmpq *0x17575(%rip)        # 1ed00 <curs_set@NCURSES6_TINFO_5.0.19991023>
    778b:	0f 1f 44 00 00       	nopl   0x0(%rax,%rax,1)

0000000000007790 <puts@plt>:
    7790:	f3 0f 1e fa          	endbr64 
    7794:	f2 ff 25 6d 75 01 00 	bnd jmpq *0x1756d(%rip)        # 1ed08 <puts@GLIBC_2.2.5>
    779b:	0f 1f 44 00 00       	nopl   0x0(%rax,%rax,1)

00000000000077a0 <ferror@plt>:
    77a0:	f3 0f 1e fa          	endbr64 
    77a4:	f2 ff 25 65 75 01 00 	bnd jmpq *0x17565(%rip)        # 1ed10 <ferror@GLIBC_2.2.5>
    77ab:	0f 1f 44 00 00       	nopl   0x0(%rax,%rax,1)

00000000000077b0 <qsort@plt>:
    77b0:	f3 0f 1e fa          	endbr64 
    77b4:	f2 ff 25 5d 75 01 00 	bnd jmpq *0x1755d(%rip)        # 1ed18 <qsort@GLIBC_2.2.5>
    77bb:	0f 1f 44 00 00       	nopl   0x0(%rax,%rax,1)

00000000000077c0 <isatty@plt>:
    77c0:	f3 0f 1e fa          	endbr64 
    77c4:	f2 ff 25 55 75 01 00 	bnd jmpq *0x17555(%rip)        # 1ed20 <isatty@GLIBC_2.2.5>
    77cb:	0f 1f 44 00 00       	nopl   0x0(%rax,%rax,1)

00000000000077d0 <sigaction@plt>:
    77d0:	f3 0f 1e fa          	endbr64 
    77d4:	f2 ff 25 4d 75 01 00 	bnd jmpq *0x1754d(%rip)        # 1ed28 <sigaction@GLIBC_2.2.5>
    77db:	0f 1f 44 00 00       	nopl   0x0(%rax,%rax,1)

00000000000077e0 <fcntl@plt>:
    77e0:	f3 0f 1e fa          	endbr64 
    77e4:	f2 ff 25 45 75 01 00 	bnd jmpq *0x17545(%rip)        # 1ed30 <fcntl@GLIBC_2.2.5>
    77eb:	0f 1f 44 00 00       	nopl   0x0(%rax,%rax,1)

00000000000077f0 <wgetch@plt>:
    77f0:	f3 0f 1e fa          	endbr64 
    77f4:	f2 ff 25 3d 75 01 00 	bnd jmpq *0x1753d(%rip)        # 1ed38 <wgetch@NCURSES6_5.0.19991023>
    77fb:	0f 1f 44 00 00       	nopl   0x0(%rax,%rax,1)

0000000000007800 <wclear@plt>:
    7800:	f3 0f 1e fa          	endbr64 
    7804:	f2 ff 25 35 75 01 00 	bnd jmpq *0x17535(%rip)        # 1ed40 <wclear@NCURSES6_5.0.19991023>
    780b:	0f 1f 44 00 00       	nopl   0x0(%rax,%rax,1)

0000000000007810 <beep@plt>:
    7810:	f3 0f 1e fa          	endbr64 
    7814:	f2 ff 25 2d 75 01 00 	bnd jmpq *0x1752d(%rip)        # 1ed48 <beep@NCURSES6_5.0.19991023>
    781b:	0f 1f 44 00 00       	nopl   0x0(%rax,%rax,1)

0000000000007820 <fclose@plt>:
    7820:	f3 0f 1e fa          	endbr64 
    7824:	f2 ff 25 25 75 01 00 	bnd jmpq *0x17525(%rip)        # 1ed50 <fclose@GLIBC_2.2.5>
    782b:	0f 1f 44 00 00       	nopl   0x0(%rax,%rax,1)

0000000000007830 <getpwuid@plt>:
    7830:	f3 0f 1e fa          	endbr64 
    7834:	f2 ff 25 1d 75 01 00 	bnd jmpq *0x1751d(%rip)        # 1ed58 <getpwuid@GLIBC_2.2.5>
    783b:	0f 1f 44 00 00       	nopl   0x0(%rax,%rax,1)

0000000000007840 <strlen@plt>:
    7840:	f3 0f 1e fa          	endbr64 
    7844:	f2 ff 25 15 75 01 00 	bnd jmpq *0x17515(%rip)        # 1ed60 <strlen@GLIBC_2.2.5>
    784b:	0f 1f 44 00 00       	nopl   0x0(%rax,%rax,1)

0000000000007850 <noecho@plt>:
    7850:	f3 0f 1e fa          	endbr64 
    7854:	f2 ff 25 0d 75 01 00 	bnd jmpq *0x1750d(%rip)        # 1ed68 <noecho@NCURSES6_5.0.19991023>
    785b:	0f 1f 44 00 00       	nopl   0x0(%rax,%rax,1)

0000000000007860 <__stack_chk_fail@plt>:
    7860:	f3 0f 1e fa          	endbr64 
    7864:	f2 ff 25 05 75 01 00 	bnd jmpq *0x17505(%rip)        # 1ed70 <__stack_chk_fail@GLIBC_2.4>
    786b:	0f 1f 44 00 00       	nopl   0x0(%rax,%rax,1)

0000000000007870 <getuid@plt>:
    7870:	f3 0f 1e fa          	endbr64 
    7874:	f2 ff 25 fd 74 01 00 	bnd jmpq *0x174fd(%rip)        # 1ed78 <getuid@GLIBC_2.2.5>
    787b:	0f 1f 44 00 00       	nopl   0x0(%rax,%rax,1)

0000000000007880 <getopt_long@plt>:
    7880:	f3 0f 1e fa          	endbr64 
    7884:	f2 ff 25 f5 74 01 00 	bnd jmpq *0x174f5(%rip)        # 1ed80 <getopt_long@GLIBC_2.2.5>
    788b:	0f 1f 44 00 00       	nopl   0x0(%rax,%rax,1)

0000000000007890 <difftime@plt>:
    7890:	f3 0f 1e fa          	endbr64 
    7894:	f2 ff 25 ed 74 01 00 	bnd jmpq *0x174ed(%rip)        # 1ed88 <difftime@GLIBC_2.2.5>
    789b:	0f 1f 44 00 00       	nopl   0x0(%rax,%rax,1)

00000000000078a0 <modf@plt>:
    78a0:	f3 0f 1e fa          	endbr64 
    78a4:	f2 ff 25 e5 74 01 00 	bnd jmpq *0x174e5(%rip)        # 1ed90 <modf@GLIBC_2.2.5>
    78ab:	0f 1f 44 00 00       	nopl   0x0(%rax,%rax,1)

00000000000078b0 <strrchr@plt>:
    78b0:	f3 0f 1e fa          	endbr64 
    78b4:	f2 ff 25 dd 74 01 00 	bnd jmpq *0x174dd(%rip)        # 1ed98 <strrchr@GLIBC_2.2.5>
    78bb:	0f 1f 44 00 00       	nopl   0x0(%rax,%rax,1)

00000000000078c0 <ftruncate@plt>:
    78c0:	f3 0f 1e fa          	endbr64 
    78c4:	f2 ff 25 d5 74 01 00 	bnd jmpq *0x174d5(%rip)        # 1eda0 <ftruncate@GLIBC_2.2.5>
    78cb:	0f 1f 44 00 00       	nopl   0x0(%rax,%rax,1)

00000000000078d0 <gettimeofday@plt>:
    78d0:	f3 0f 1e fa          	endbr64 
    78d4:	f2 ff 25 cd 74 01 00 	bnd jmpq *0x174cd(%rip)        # 1eda8 <gettimeofday@GLIBC_2.2.5>
    78db:	0f 1f 44 00 00       	nopl   0x0(%rax,%rax,1)

00000000000078e0 <__assert_fail@plt>:
    78e0:	f3 0f 1e fa          	endbr64 
    78e4:	f2 ff 25 c5 74 01 00 	bnd jmpq *0x174c5(%rip)        # 1edb0 <__assert_fail@GLIBC_2.2.5>
    78eb:	0f 1f 44 00 00       	nopl   0x0(%rax,%rax,1)

00000000000078f0 <initscr@plt>:
    78f0:	f3 0f 1e fa          	endbr64 
    78f4:	f2 ff 25 bd 74 01 00 	bnd jmpq *0x174bd(%rip)        # 1edb8 <initscr@NCURSES6_5.0.19991023>
    78fb:	0f 1f 44 00 00       	nopl   0x0(%rax,%rax,1)

0000000000007900 <wrefresh@plt>:
    7900:	f3 0f 1e fa          	endbr64 
    7904:	f2 ff 25 b5 74 01 00 	bnd jmpq *0x174b5(%rip)        # 1edc0 <wrefresh@NCURSES6_5.0.19991023>
    790b:	0f 1f 44 00 00       	nopl   0x0(%rax,%rax,1)

0000000000007910 <mvwprintw@plt>:
    7910:	f3 0f 1e fa          	endbr64 
    7914:	f2 ff 25 ad 74 01 00 	bnd jmpq *0x174ad(%rip)        # 1edc8 <mvwprintw@NCURSES6_5.0.19991023>
    791b:	0f 1f 44 00 00       	nopl   0x0(%rax,%rax,1)

0000000000007920 <geteuid@plt>:
    7920:	f3 0f 1e fa          	endbr64 
    7924:	f2 ff 25 a5 74 01 00 	bnd jmpq *0x174a5(%rip)        # 1edd0 <geteuid@GLIBC_2.2.5>
    792b:	0f 1f 44 00 00       	nopl   0x0(%rax,%rax,1)

0000000000007930 <keypad@plt>:
    7930:	f3 0f 1e fa          	endbr64 
    7934:	f2 ff 25 9d 74 01 00 	bnd jmpq *0x1749d(%rip)        # 1edd8 <keypad@NCURSES6_TINFO_5.0.19991023>
    793b:	0f 1f 44 00 00       	nopl   0x0(%rax,%rax,1)

0000000000007940 <fputc@plt>:
    7940:	f3 0f 1e fa          	endbr64 
    7944:	f2 ff 25 95 74 01 00 	bnd jmpq *0x17495(%rip)        # 1ede0 <fputc@GLIBC_2.2.5>
    794b:	0f 1f 44 00 00       	nopl   0x0(%rax,%rax,1)

0000000000007950 <wattr_on@plt>:
    7950:	f3 0f 1e fa          	endbr64 
    7954:	f2 ff 25 8d 74 01 00 	bnd jmpq *0x1748d(%rip)        # 1ede8 <wattr_on@NCURSES6_5.0.19991023>
    795b:	0f 1f 44 00 00       	nopl   0x0(%rax,%rax,1)

0000000000007960 <read@plt>:
    7960:	f3 0f 1e fa          	endbr64 
    7964:	f2 ff 25 85 74 01 00 	bnd jmpq *0x17485(%rip)        # 1edf0 <read@GLIBC_2.2.5>
    796b:	0f 1f 44 00 00       	nopl   0x0(%rax,%rax,1)

0000000000007970 <srand@plt>:
    7970:	f3 0f 1e fa          	endbr64 
    7974:	f2 ff 25 7d 74 01 00 	bnd jmpq *0x1747d(%rip)        # 1edf8 <srand@GLIBC_2.2.5>
    797b:	0f 1f 44 00 00       	nopl   0x0(%rax,%rax,1)

0000000000007980 <leaveok@plt>:
    7980:	f3 0f 1e fa          	endbr64 
    7984:	f2 ff 25 75 74 01 00 	bnd jmpq *0x17475(%rip)        # 1ee00 <leaveok@NCURSES6_5.0.19991023>
    798b:	0f 1f 44 00 00       	nopl   0x0(%rax,%rax,1)

0000000000007990 <strcmp@plt>:
    7990:	f3 0f 1e fa          	endbr64 
    7994:	f2 ff 25 6d 74 01 00 	bnd jmpq *0x1746d(%rip)        # 1ee08 <strcmp@GLIBC_2.2.5>
    799b:	0f 1f 44 00 00       	nopl   0x0(%rax,%rax,1)

00000000000079a0 <sigemptyset@plt>:
    79a0:	f3 0f 1e fa          	endbr64 
    79a4:	f2 ff 25 65 74 01 00 	bnd jmpq *0x17465(%rip)        # 1ee10 <sigemptyset@GLIBC_2.2.5>
    79ab:	0f 1f 44 00 00       	nopl   0x0(%rax,%rax,1)

00000000000079b0 <ftell@plt>:
    79b0:	f3 0f 1e fa          	endbr64 
    79b4:	f2 ff 25 5d 74 01 00 	bnd jmpq *0x1745d(%rip)        # 1ee18 <ftell@GLIBC_2.2.5>
    79bb:	0f 1f 44 00 00       	nopl   0x0(%rax,%rax,1)

00000000000079c0 <umask@plt>:
    79c0:	f3 0f 1e fa          	endbr64 
    79c4:	f2 ff 25 55 74 01 00 	bnd jmpq *0x17455(%rip)        # 1ee20 <umask@GLIBC_2.2.5>
    79cb:	0f 1f 44 00 00       	nopl   0x0(%rax,%rax,1)

00000000000079d0 <sigfillset@plt>:
    79d0:	f3 0f 1e fa          	endbr64 
    79d4:	f2 ff 25 4d 74 01 00 	bnd jmpq *0x1744d(%rip)        # 1ee28 <sigfillset@GLIBC_2.2.5>
    79db:	0f 1f 44 00 00       	nopl   0x0(%rax,%rax,1)

00000000000079e0 <time@plt>:
    79e0:	f3 0f 1e fa          	endbr64 
    79e4:	f2 ff 25 45 74 01 00 	bnd jmpq *0x17445(%rip)        # 1ee30 <time@GLIBC_2.2.5>
    79eb:	0f 1f 44 00 00       	nopl   0x0(%rax,%rax,1)

00000000000079f0 <fileno@plt>:
    79f0:	f3 0f 1e fa          	endbr64 
    79f4:	f2 ff 25 3d 74 01 00 	bnd jmpq *0x1743d(%rip)        # 1ee38 <fileno@GLIBC_2.2.5>
    79fb:	0f 1f 44 00 00       	nopl   0x0(%rax,%rax,1)

0000000000007a00 <getgid@plt>:
    7a00:	f3 0f 1e fa          	endbr64 
    7a04:	f2 ff 25 35 74 01 00 	bnd jmpq *0x17435(%rip)        # 1ee40 <getgid@GLIBC_2.2.5>
    7a0b:	0f 1f 44 00 00       	nopl   0x0(%rax,%rax,1)

0000000000007a10 <select@plt>:
    7a10:	f3 0f 1e fa          	endbr64 
    7a14:	f2 ff 25 2d 74 01 00 	bnd jmpq *0x1742d(%rip)        # 1ee48 <select@GLIBC_2.2.5>
    7a1b:	0f 1f 44 00 00       	nopl   0x0(%rax,%rax,1)

0000000000007a20 <delwin@plt>:
    7a20:	f3 0f 1e fa          	endbr64 
    7a24:	f2 ff 25 25 74 01 00 	bnd jmpq *0x17425(%rip)        # 1ee50 <delwin@NCURSES6_5.0.19991023>
    7a2b:	0f 1f 44 00 00       	nopl   0x0(%rax,%rax,1)

0000000000007a30 <intrflush@plt>:
    7a30:	f3 0f 1e fa          	endbr64 
    7a34:	f2 ff 25 1d 74 01 00 	bnd jmpq *0x1741d(%rip)        # 1ee58 <intrflush@NCURSES6_TINFO_5.0.19991023>
    7a3b:	0f 1f 44 00 00       	nopl   0x0(%rax,%rax,1)

0000000000007a40 <cbreak@plt>:
    7a40:	f3 0f 1e fa          	endbr64 
    7a44:	f2 ff 25 15 74 01 00 	bnd jmpq *0x17415(%rip)        # 1ee60 <cbreak@NCURSES6_TINFO_5.0.19991023>
    7a4b:	0f 1f 44 00 00       	nopl   0x0(%rax,%rax,1)

0000000000007a50 <malloc@plt>:
    7a50:	f3 0f 1e fa          	endbr64 
    7a54:	f2 ff 25 0d 74 01 00 	bnd jmpq *0x1740d(%rip)        # 1ee68 <malloc@GLIBC_2.2.5>
    7a5b:	0f 1f 44 00 00       	nopl   0x0(%rax,%rax,1)

0000000000007a60 <fflush@plt>:
    7a60:	f3 0f 1e fa          	endbr64 
    7a64:	f2 ff 25 05 74 01 00 	bnd jmpq *0x17405(%rip)        # 1ee70 <fflush@GLIBC_2.2.5>
    7a6b:	0f 1f 44 00 00       	nopl   0x0(%rax,%rax,1)

0000000000007a70 <__isoc99_sscanf@plt>:
    7a70:	f3 0f 1e fa          	endbr64 
    7a74:	f2 ff 25 fd 73 01 00 	bnd jmpq *0x173fd(%rip)        # 1ee78 <__isoc99_sscanf@GLIBC_2.7>
    7a7b:	0f 1f 44 00 00       	nopl   0x0(%rax,%rax,1)

0000000000007a80 <__fxstat@plt>:
    7a80:	f3 0f 1e fa          	endbr64 
    7a84:	f2 ff 25 f5 73 01 00 	bnd jmpq *0x173f5(%rip)        # 1ee80 <__fxstat@GLIBC_2.2.5>
    7a8b:	0f 1f 44 00 00       	nopl   0x0(%rax,%rax,1)

0000000000007a90 <getegid@plt>:
    7a90:	f3 0f 1e fa          	endbr64 
    7a94:	f2 ff 25 ed 73 01 00 	bnd jmpq *0x173ed(%rip)        # 1ee88 <getegid@GLIBC_2.2.5>
    7a9b:	0f 1f 44 00 00       	nopl   0x0(%rax,%rax,1)

0000000000007aa0 <mktime@plt>:
    7aa0:	f3 0f 1e fa          	endbr64 
    7aa4:	f2 ff 25 e5 73 01 00 	bnd jmpq *0x173e5(%rip)        # 1ee90 <mktime@GLIBC_2.2.5>
    7aab:	0f 1f 44 00 00       	nopl   0x0(%rax,%rax,1)

0000000000007ab0 <echo@plt>:
    7ab0:	f3 0f 1e fa          	endbr64 
    7ab4:	f2 ff 25 dd 73 01 00 	bnd jmpq *0x173dd(%rip)        # 1ee98 <echo@NCURSES6_5.0.19991023>
    7abb:	0f 1f 44 00 00       	nopl   0x0(%rax,%rax,1)

0000000000007ac0 <wnoutrefresh@plt>:
    7ac0:	f3 0f 1e fa          	endbr64 
    7ac4:	f2 ff 25 d5 73 01 00 	bnd jmpq *0x173d5(%rip)        # 1eea0 <wnoutrefresh@NCURSES6_5.0.19991023>
    7acb:	0f 1f 44 00 00       	nopl   0x0(%rax,%rax,1)

0000000000007ad0 <fseek@plt>:
    7ad0:	f3 0f 1e fa          	endbr64 
    7ad4:	f2 ff 25 cd 73 01 00 	bnd jmpq *0x173cd(%rip)        # 1eea8 <fseek@GLIBC_2.2.5>
    7adb:	0f 1f 44 00 00       	nopl   0x0(%rax,%rax,1)

0000000000007ae0 <setreuid@plt>:
    7ae0:	f3 0f 1e fa          	endbr64 
    7ae4:	f2 ff 25 c5 73 01 00 	bnd jmpq *0x173c5(%rip)        # 1eeb0 <setreuid@GLIBC_2.2.5>
    7aeb:	0f 1f 44 00 00       	nopl   0x0(%rax,%rax,1)

0000000000007af0 <setregid@plt>:
    7af0:	f3 0f 1e fa          	endbr64 
    7af4:	f2 ff 25 bd 73 01 00 	bnd jmpq *0x173bd(%rip)        # 1eeb8 <setregid@GLIBC_2.2.5>
    7afb:	0f 1f 44 00 00       	nopl   0x0(%rax,%rax,1)

0000000000007b00 <realloc@plt>:
    7b00:	f3 0f 1e fa          	endbr64 
    7b04:	f2 ff 25 b5 73 01 00 	bnd jmpq *0x173b5(%rip)        # 1eec0 <realloc@GLIBC_2.2.5>
    7b0b:	0f 1f 44 00 00       	nopl   0x0(%rax,%rax,1)

0000000000007b10 <__strcpy_chk@plt>:
    7b10:	f3 0f 1e fa          	endbr64 
    7b14:	f2 ff 25 ad 73 01 00 	bnd jmpq *0x173ad(%rip)        # 1eec8 <__strcpy_chk@GLIBC_2.3.4>
    7b1b:	0f 1f 44 00 00       	nopl   0x0(%rax,%rax,1)

0000000000007b20 <fdopen@plt>:
    7b20:	f3 0f 1e fa          	endbr64 
    7b24:	f2 ff 25 a5 73 01 00 	bnd jmpq *0x173a5(%rip)        # 1eed0 <fdopen@GLIBC_2.2.5>
    7b2b:	0f 1f 44 00 00       	nopl   0x0(%rax,%rax,1)

0000000000007b30 <setlocale@plt>:
    7b30:	f3 0f 1e fa          	endbr64 
    7b34:	f2 ff 25 9d 73 01 00 	bnd jmpq *0x1739d(%rip)        # 1eed8 <setlocale@GLIBC_2.2.5>
    7b3b:	0f 1f 44 00 00       	nopl   0x0(%rax,%rax,1)

0000000000007b40 <__printf_chk@plt>:
    7b40:	f3 0f 1e fa          	endbr64 
    7b44:	f2 ff 25 95 73 01 00 	bnd jmpq *0x17395(%rip)        # 1eee0 <__printf_chk@GLIBC_2.3.4>
    7b4b:	0f 1f 44 00 00       	nopl   0x0(%rax,%rax,1)

0000000000007b50 <fchmod@plt>:
    7b50:	f3 0f 1e fa          	endbr64 
    7b54:	f2 ff 25 8d 73 01 00 	bnd jmpq *0x1738d(%rip)        # 1eee8 <fchmod@GLIBC_2.2.5>
    7b5b:	0f 1f 44 00 00       	nopl   0x0(%rax,%rax,1)

0000000000007b60 <wgetnstr@plt>:
    7b60:	f3 0f 1e fa          	endbr64 
    7b64:	f2 ff 25 85 73 01 00 	bnd jmpq *0x17385(%rip)        # 1eef0 <wgetnstr@NCURSES6_5.0.19991023>
    7b6b:	0f 1f 44 00 00       	nopl   0x0(%rax,%rax,1)

0000000000007b70 <memmove@plt>:
    7b70:	f3 0f 1e fa          	endbr64 
    7b74:	f2 ff 25 7d 73 01 00 	bnd jmpq *0x1737d(%rip)        # 1eef8 <memmove@GLIBC_2.2.5>
    7b7b:	0f 1f 44 00 00       	nopl   0x0(%rax,%rax,1)

0000000000007b80 <setgid@plt>:
    7b80:	f3 0f 1e fa          	endbr64 
    7b84:	f2 ff 25 75 73 01 00 	bnd jmpq *0x17375(%rip)        # 1ef00 <setgid@GLIBC_2.2.5>
    7b8b:	0f 1f 44 00 00       	nopl   0x0(%rax,%rax,1)

0000000000007b90 <tcgetattr@plt>:
    7b90:	f3 0f 1e fa          	endbr64 
    7b94:	f2 ff 25 6d 73 01 00 	bnd jmpq *0x1736d(%rip)        # 1ef08 <tcgetattr@GLIBC_2.2.5>
    7b9b:	0f 1f 44 00 00       	nopl   0x0(%rax,%rax,1)

0000000000007ba0 <doupdate@plt>:
    7ba0:	f3 0f 1e fa          	endbr64 
    7ba4:	f2 ff 25 65 73 01 00 	bnd jmpq *0x17365(%rip)        # 1ef10 <doupdate@NCURSES6_5.0.19991023>
    7bab:	0f 1f 44 00 00       	nopl   0x0(%rax,%rax,1)

0000000000007bb0 <tcsetattr@plt>:
    7bb0:	f3 0f 1e fa          	endbr64 
    7bb4:	f2 ff 25 5d 73 01 00 	bnd jmpq *0x1735d(%rip)        # 1ef18 <tcsetattr@GLIBC_2.2.5>
    7bbb:	0f 1f 44 00 00       	nopl   0x0(%rax,%rax,1)

0000000000007bc0 <open@plt>:
    7bc0:	f3 0f 1e fa          	endbr64 
    7bc4:	f2 ff 25 55 73 01 00 	bnd jmpq *0x17355(%rip)        # 1ef20 <open@GLIBC_2.2.5>
    7bcb:	0f 1f 44 00 00       	nopl   0x0(%rax,%rax,1)

0000000000007bd0 <wmove@plt>:
    7bd0:	f3 0f 1e fa          	endbr64 
    7bd4:	f2 ff 25 4d 73 01 00 	bnd jmpq *0x1734d(%rip)        # 1ef28 <wmove@NCURSES6_5.0.19991023>
    7bdb:	0f 1f 44 00 00       	nopl   0x0(%rax,%rax,1)

0000000000007be0 <wclrtoeol@plt>:
    7be0:	f3 0f 1e fa          	endbr64 
    7be4:	f2 ff 25 45 73 01 00 	bnd jmpq *0x17345(%rip)        # 1ef30 <wclrtoeol@NCURSES6_5.0.19991023>
    7beb:	0f 1f 44 00 00       	nopl   0x0(%rax,%rax,1)

0000000000007bf0 <waddch@plt>:
    7bf0:	f3 0f 1e fa          	endbr64 
    7bf4:	f2 ff 25 3d 73 01 00 	bnd jmpq *0x1733d(%rip)        # 1ef38 <waddch@NCURSES6_5.0.19991023>
    7bfb:	0f 1f 44 00 00       	nopl   0x0(%rax,%rax,1)

0000000000007c00 <strcat@plt>:
    7c00:	f3 0f 1e fa          	endbr64 
    7c04:	f2 ff 25 35 73 01 00 	bnd jmpq *0x17335(%rip)        # 1ef40 <strcat@GLIBC_2.2.5>
    7c0b:	0f 1f 44 00 00       	nopl   0x0(%rax,%rax,1)

0000000000007c10 <has_key@plt>:
    7c10:	f3 0f 1e fa          	endbr64 
    7c14:	f2 ff 25 2d 73 01 00 	bnd jmpq *0x1732d(%rip)        # 1ef48 <has_key@NCURSES6_TINFO_5.0.19991023>
    7c1b:	0f 1f 44 00 00       	nopl   0x0(%rax,%rax,1)

0000000000007c20 <exit@plt>:
    7c20:	f3 0f 1e fa          	endbr64 
    7c24:	f2 ff 25 25 73 01 00 	bnd jmpq *0x17325(%rip)        # 1ef50 <exit@GLIBC_2.2.5>
    7c2b:	0f 1f 44 00 00       	nopl   0x0(%rax,%rax,1)

0000000000007c30 <fwrite@plt>:
    7c30:	f3 0f 1e fa          	endbr64 
    7c34:	f2 ff 25 1d 73 01 00 	bnd jmpq *0x1731d(%rip)        # 1ef58 <fwrite@GLIBC_2.2.5>
    7c3b:	0f 1f 44 00 00       	nopl   0x0(%rax,%rax,1)

0000000000007c40 <__fprintf_chk@plt>:
    7c40:	f3 0f 1e fa          	endbr64 
    7c44:	f2 ff 25 15 73 01 00 	bnd jmpq *0x17315(%rip)        # 1ef60 <__fprintf_chk@GLIBC_2.3.4>
    7c4b:	0f 1f 44 00 00       	nopl   0x0(%rax,%rax,1)

0000000000007c50 <__strncat_chk@plt>:
    7c50:	f3 0f 1e fa          	endbr64 
    7c54:	f2 ff 25 0d 73 01 00 	bnd jmpq *0x1730d(%rip)        # 1ef68 <__strncat_chk@GLIBC_2.3.4>
    7c5b:	0f 1f 44 00 00       	nopl   0x0(%rax,%rax,1)

0000000000007c60 <wprintw@plt>:
    7c60:	f3 0f 1e fa          	endbr64 
    7c64:	f2 ff 25 05 73 01 00 	bnd jmpq *0x17305(%rip)        # 1ef70 <wprintw@NCURSES6_5.0.19991023>
    7c6b:	0f 1f 44 00 00       	nopl   0x0(%rax,%rax,1)

0000000000007c70 <setuid@plt>:
    7c70:	f3 0f 1e fa          	endbr64 
    7c74:	f2 ff 25 fd 72 01 00 	bnd jmpq *0x172fd(%rip)        # 1ef78 <setuid@GLIBC_2.2.5>
    7c7b:	0f 1f 44 00 00       	nopl   0x0(%rax,%rax,1)

0000000000007c80 <endwin@plt>:
    7c80:	f3 0f 1e fa          	endbr64 
    7c84:	f2 ff 25 f5 72 01 00 	bnd jmpq *0x172f5(%rip)        # 1ef80 <endwin@NCURSES6_5.0.19991023>
    7c8b:	0f 1f 44 00 00       	nopl   0x0(%rax,%rax,1)

0000000000007c90 <strerror@plt>:
    7c90:	f3 0f 1e fa          	endbr64 
    7c94:	f2 ff 25 ed 72 01 00 	bnd jmpq *0x172ed(%rip)        # 1ef88 <strerror@GLIBC_2.2.5>
    7c9b:	0f 1f 44 00 00       	nopl   0x0(%rax,%rax,1)

0000000000007ca0 <waddnstr@plt>:
    7ca0:	f3 0f 1e fa          	endbr64 
    7ca4:	f2 ff 25 e5 72 01 00 	bnd jmpq *0x172e5(%rip)        # 1ef90 <waddnstr@NCURSES6_5.0.19991023>
    7cab:	0f 1f 44 00 00       	nopl   0x0(%rax,%rax,1)

0000000000007cb0 <sleep@plt>:
    7cb0:	f3 0f 1e fa          	endbr64 
    7cb4:	f2 ff 25 dd 72 01 00 	bnd jmpq *0x172dd(%rip)        # 1ef98 <sleep@GLIBC_2.2.5>
    7cbb:	0f 1f 44 00 00       	nopl   0x0(%rax,%rax,1)

0000000000007cc0 <wattr_off@plt>:
    7cc0:	f3 0f 1e fa          	endbr64 
    7cc4:	f2 ff 25 d5 72 01 00 	bnd jmpq *0x172d5(%rip)        # 1efa0 <wattr_off@NCURSES6_5.0.19991023>
    7ccb:	0f 1f 44 00 00       	nopl   0x0(%rax,%rax,1)

0000000000007cd0 <strstr@plt>:
    7cd0:	f3 0f 1e fa          	endbr64 
    7cd4:	f2 ff 25 cd 72 01 00 	bnd jmpq *0x172cd(%rip)        # 1efa8 <strstr@GLIBC_2.2.5>
    7cdb:	0f 1f 44 00 00       	nopl   0x0(%rax,%rax,1)

0000000000007ce0 <rand@plt>:
    7ce0:	f3 0f 1e fa          	endbr64 
    7ce4:	f2 ff 25 c5 72 01 00 	bnd jmpq *0x172c5(%rip)        # 1efb0 <rand@GLIBC_2.2.5>
    7ceb:	0f 1f 44 00 00       	nopl   0x0(%rax,%rax,1)

0000000000007cf0 <__ctype_tolower_loc@plt>:
    7cf0:	f3 0f 1e fa          	endbr64 
    7cf4:	f2 ff 25 bd 72 01 00 	bnd jmpq *0x172bd(%rip)        # 1efb8 <__ctype_tolower_loc@GLIBC_2.3>
    7cfb:	0f 1f 44 00 00       	nopl   0x0(%rax,%rax,1)

0000000000007d00 <__ctype_b_loc@plt>:
    7d00:	f3 0f 1e fa          	endbr64 
    7d04:	f2 ff 25 b5 72 01 00 	bnd jmpq *0x172b5(%rip)        # 1efc0 <__ctype_b_loc@GLIBC_2.3>
    7d0b:	0f 1f 44 00 00       	nopl   0x0(%rax,%rax,1)

0000000000007d10 <__sprintf_chk@plt>:
    7d10:	f3 0f 1e fa          	endbr64 
    7d14:	f2 ff 25 ad 72 01 00 	bnd jmpq *0x172ad(%rip)        # 1efc8 <__sprintf_chk@GLIBC_2.3.4>
    7d1b:	0f 1f 44 00 00       	nopl   0x0(%rax,%rax,1)

Disassembly of section .text:

0000000000007d20 <set_persona.cold>:
    new_uid = user_uid;
    old_gid = game_gid;
    new_gid = user_gid;
    break;
  default:
    abort ();			/* should not happen */
    7d20:	e8 fb f9 ff ff       	callq  7720 <abort@plt>
    7d25:	66 2e 0f 1f 84 00 00 	nopw   %cs:0x0(%rax,%rax,1)
    7d2c:	00 00 00 
    7d2f:	90                   	nop

0000000000007d30 <main>:
 * main procedure
 */

int
main (int argc, char **argv)
{
    7d30:	f3 0f 1e fa          	endbr64 
    7d34:	41 57                	push   %r15
    7d36:	41 56                	push   %r14
    7d38:	41 55                	push   %r13
    7d3a:	41 54                	push   %r12
    7d3c:	41 89 fc             	mov    %edi,%r12d
    7d3f:	55                   	push   %rbp
    7d40:	48 89 f5             	mov    %rsi,%rbp
    7d43:	53                   	push   %rbx
    7d44:	48 81 ec 18 01 00 00 	sub    $0x118,%rsp
    7d4b:	64 48 8b 04 25 28 00 	mov    %fs:0x28,%rax
    7d52:	00 00 
    7d54:	48 89 84 24 08 01 00 	mov    %rax,0x108(%rsp)
    7d5b:	00 
    7d5c:	31 c0                	xor    %eax,%eax
#ifdef HAVE_GETOPT_LONG
  struct option  long_options [] = {
    7d5e:	48 8d 05 a3 82 00 00 	lea    0x82a3(%rip),%rax        # 10008 <_IO_stdin_used+0x8>
    7d65:	c7 44 24 28 00 00 00 	movl   $0x0,0x28(%rsp)
    7d6c:	00 
    7d6d:	48 89 44 24 20       	mov    %rax,0x20(%rsp)
    7d72:	48 8d 05 9d 82 00 00 	lea    0x829d(%rip),%rax        # 10016 <_IO_stdin_used+0x16>
    7d79:	48 89 44 24 40       	mov    %rax,0x40(%rsp)
    7d7e:	48 8d 05 96 82 00 00 	lea    0x8296(%rip),%rax        # 1001b <_IO_stdin_used+0x1b>
    7d85:	48 89 44 24 60       	mov    %rax,0x60(%rsp)
    7d8a:	48 8d 05 8f 82 00 00 	lea    0x828f(%rip),%rax        # 10020 <_IO_stdin_used+0x20>
    7d91:	48 89 84 24 80 00 00 	mov    %rax,0x80(%rsp)
    7d98:	00 
    7d99:	48 8d 05 89 82 00 00 	lea    0x8289(%rip),%rax        # 10029 <_IO_stdin_used+0x29>
    7da0:	48 89 84 24 a0 00 00 	mov    %rax,0xa0(%rsp)
    7da7:	00 
    7da8:	48 8d 05 86 82 00 00 	lea    0x8286(%rip),%rax        # 10035 <_IO_stdin_used+0x35>
    7daf:	48 89 84 24 c0 00 00 	mov    %rax,0xc0(%rsp)
    7db6:	00 
    7db7:	48 c7 44 24 30 00 00 	movq   $0x0,0x30(%rsp)
    7dbe:	00 00 
    7dc0:	c7 44 24 38 63 00 00 	movl   $0x63,0x38(%rsp)
    7dc7:	00 
    7dc8:	c7 44 24 48 00 00 00 	movl   $0x0,0x48(%rsp)
    7dcf:	00 
    7dd0:	48 c7 44 24 50 00 00 	movq   $0x0,0x50(%rsp)
    7dd7:	00 00 
    7dd9:	c7 44 24 58 68 00 00 	movl   $0x68,0x58(%rsp)
    7de0:	00 
    7de1:	c7 44 24 68 00 00 00 	movl   $0x0,0x68(%rsp)
    7de8:	00 
    7de9:	48 c7 44 24 70 00 00 	movq   $0x0,0x70(%rsp)
    7df0:	00 00 
    7df2:	c7 44 24 78 6d 00 00 	movl   $0x6d,0x78(%rsp)
    7df9:	00 
    7dfa:	c7 84 24 88 00 00 00 	movl   $0x0,0x88(%rsp)
    7e01:	00 00 00 00 
    7e05:	48 c7 84 24 90 00 00 	movq   $0x0,0x90(%rsp)
    7e0c:	00 00 00 00 00 
    7e11:	c7 84 24 98 00 00 00 	movl   $0x6e,0x98(%rsp)
    7e18:	6e 00 00 00 
    7e1c:	c7 84 24 a8 00 00 00 	movl   $0x0,0xa8(%rsp)
    7e23:	00 00 00 00 
    7e27:	48 c7 84 24 b0 00 00 	movq   $0x0,0xb0(%rsp)
    7e2e:	00 00 00 00 00 
    7e33:	c7 84 24 b8 00 00 00 	movl   $0x73,0xb8(%rsp)
    7e3a:	73 00 00 00 
    7e3e:	c7 84 24 c8 00 00 00 	movl   $0x0,0xc8(%rsp)
    7e45:	00 00 00 00 
    7e49:	48 c7 84 24 d0 00 00 	movq   $0x0,0xd0(%rsp)
    7e50:	00 00 00 00 00 
    7e55:	c7 84 24 d8 00 00 00 	movl   $0x56,0xd8(%rsp)
    7e5c:	56 00 00 00 
    7e60:	48 c7 84 24 e0 00 00 	movq   $0x0,0xe0(%rsp)
    7e67:	00 00 00 00 00 
    7e6c:	c7 84 24 e8 00 00 00 	movl   $0x0,0xe8(%rsp)
    7e73:	00 00 00 00 
    7e77:	48 c7 84 24 f0 00 00 	movq   $0x0,0xf0(%rsp)
    7e7e:	00 00 00 00 00 
    7e83:	c7 84 24 f8 00 00 00 	movl   $0x0,0xf8(%rsp)
    7e8a:	00 00 00 00 
  int  highscore_flag = 0;
  int  title_flag = 1;
  int  version_flag = 0;
  int  error_flag = 0;

  initialise_persona ();
    7e8e:	e8 5d 60 00 00       	callq  def0 <initialise_persona>
  set_persona (pers_USER);
    7e93:	bf 01 00 00 00       	mov    $0x1,%edi
    7e98:	e8 f3 60 00 00       	callq  df90 <set_persona>

#ifdef HAVE_SETLOCALE
  setlocale (LC_CTYPE, "");
    7e9d:	48 8d 35 db 81 00 00 	lea    0x81db(%rip),%rsi        # 1007f <_IO_stdin_used+0x7f>
    7ea4:	31 ff                	xor    %edi,%edi
    7ea6:	e8 85 fc ff ff       	callq  7b30 <setlocale@plt>
#endif

  /* `basename' seems to be non-standard.  So we avoid it.  */
  my_name = strrchr (argv[0], '/');
    7eab:	48 8b 7d 00          	mov    0x0(%rbp),%rdi
    7eaf:	be 2f 00 00 00       	mov    $0x2f,%esi
    7eb4:	e8 f7 f9 ff ff       	callq  78b0 <strrchr@plt>
    7eb9:	48 89 05 48 8f 01 00 	mov    %rax,0x18f48(%rip)        # 20e08 <my_name>
  my_name = xstrdup (my_name ? my_name+1 : argv[0]);
    7ec0:	48 8d 78 01          	lea    0x1(%rax),%rdi
    7ec4:	48 85 c0             	test   %rax,%rax
    7ec7:	0f 84 ff 01 00 00    	je     80cc <main+0x39c>
    7ecd:	e8 fe 77 00 00       	callq  f6d0 <xstrdup>
  int  version_flag = 0;
    7ed2:	c7 44 24 04 00 00 00 	movl   $0x0,0x4(%rsp)
    7ed9:	00 
  int  highscore_flag = 0;
    7eda:	45 31 f6             	xor    %r14d,%r14d
    7edd:	4c 8d 7c 24 1c       	lea    0x1c(%rsp),%r15
  my_name = xstrdup (my_name ? my_name+1 : argv[0]);
    7ee2:	48 89 05 1f 8f 01 00 	mov    %rax,0x18f1f(%rip)        # 20e08 <my_name>
    7ee9:	4c 8d 6c 24 20       	lea    0x20(%rsp),%r13
    7eee:	48 8d 1d 27 84 00 00 	lea    0x8427(%rip),%rbx        # 1031c <_IO_stdin_used+0x31c>
  int  title_flag = 1;
    7ef5:	c7 44 24 0c 01 00 00 	movl   $0x1,0xc(%rsp)
    7efc:	00 
  int  help_flag = 0;
    7efd:	c7 44 24 08 00 00 00 	movl   $0x0,0x8(%rsp)
    7f04:	00 
    7f05:	0f 1f 00             	nopl   (%rax)

  do {
    int  c;
#ifdef HAVE_GETOPT_LONG
    int  ind;
    c = getopt_long (argc, argv, MB_SHORT_OPTIONS, long_options, &ind);
    7f08:	4d 89 f8             	mov    %r15,%r8
    7f0b:	4c 89 e9             	mov    %r13,%rcx
    7f0e:	48 8d 15 28 81 00 00 	lea    0x8128(%rip),%rdx        # 1003d <_IO_stdin_used+0x3d>
    7f15:	48 89 ee             	mov    %rbp,%rsi
    7f18:	44 89 e7             	mov    %r12d,%edi
    7f1b:	e8 60 f9 ff ff       	callq  7880 <getopt_long@plt>
#else
    c = getopt (argc, argv, MB_SHORT_OPTIONS);
#endif
    if (c == -1)  break;
    7f20:	83 f8 ff             	cmp    $0xffffffff,%eax
    7f23:	0f 84 91 00 00 00    	je     7fba <main+0x28a>
    switch (c) {
    7f29:	83 e8 56             	sub    $0x56,%eax
    7f2c:	83 f8 1d             	cmp    $0x1d,%eax
    7f2f:	77 44                	ja     7f75 <main+0x245>
    7f31:	48 63 04 83          	movslq (%rbx,%rax,4),%rax
    7f35:	48 01 d8             	add    %rbx,%rax
    7f38:	3e ff e0             	notrack jmpq *%rax
      break;
    case 'n':
      title_flag = 0;
      break;
    case 's':
      highscore_flag = 1;
    7f3b:	41 be 01 00 00 00    	mov    $0x1,%r14d
    7f41:	eb c5                	jmp    7f08 <main+0x1d8>
      title_flag = 0;
    7f43:	c7 44 24 0c 00 00 00 	movl   $0x0,0xc(%rsp)
    7f4a:	00 
    7f4b:	eb bb                	jmp    7f08 <main+0x1d8>
      mesg_flag = 1;
    7f4d:	c7 05 55 73 01 00 01 	movl   $0x1,0x17355(%rip)        # 1f2ac <mesg_flag>
    7f54:	00 00 00 
      version_flag = 1;
      break;
    default:
      error_flag = 1;
    }
  } while (! error_flag);
    7f57:	eb af                	jmp    7f08 <main+0x1d8>
      help_flag = 1;
    7f59:	c7 44 24 08 01 00 00 	movl   $0x1,0x8(%rsp)
    7f60:	00 
    7f61:	eb a5                	jmp    7f08 <main+0x1d8>
      highscore_flag = 2;
    7f63:	41 be 02 00 00 00    	mov    $0x2,%r14d
    7f69:	eb 9d                	jmp    7f08 <main+0x1d8>
      version_flag = 1;
    7f6b:	c7 44 24 04 01 00 00 	movl   $0x1,0x4(%rsp)
    7f72:	00 
    7f73:	eb 93                	jmp    7f08 <main+0x1d8>
      error_flag = 1;
    7f75:	bd 01 00 00 00       	mov    $0x1,%ebp

  if (argc != optind) {
    7f7a:	44 39 25 e7 72 01 00 	cmp    %r12d,0x172e7(%rip)        # 1f268 <optind@@GLIBC_2.2.5>
    7f81:	75 42                	jne    7fc5 <main+0x295>
    fputs ("too many arguments\n", stderr);
    error_flag = 1;
  }

  if (version_flag) {
    7f83:	83 7c 24 04 00       	cmpl   $0x0,0x4(%rsp)
    7f88:	0f 85 ed 01 00 00    	jne    817b <main+0x44b>
You may redistribute copies of Moon-Buggy under the terms of the GNU\n\
General Public License.  For more information about these matters, see\n\
the file named COPYING or press `c' at Moon-Buggy's title screen.");
    if (! error_flag)  exit (0);
  }
  if (error_flag || help_flag) {
    7f8e:	8b 44 24 08          	mov    0x8(%rsp),%eax
    7f92:	09 e8                	or     %ebp,%eax
    7f94:	0f 85 69 02 00 00    	jne    8203 <main+0x4d3>
           out);
    fputs ("Please report bugs to <voss@seehuhn.de>.\n", out);
    exit (error_flag);
  }

  init_rnd ();
    7f9a:	e8 41 75 00 00       	callq  f4e0 <init_rnd>

  if (highscore_flag) {
    7f9f:	45 85 f6             	test   %r14d,%r14d
    7fa2:	0f 84 2d 01 00 00    	je     80d5 <main+0x3a5>
    if (highscore_flag == 1) {
    7fa8:	41 83 ee 01          	sub    $0x1,%r14d
    7fac:	74 10                	je     7fbe <main+0x28e>
      show_highscores ();
    } else {
      create_highscores ();
    7fae:	e8 2d 50 00 00       	callq  cfe0 <create_highscores>
    if (! error_flag)  exit (0);
    7fb3:	31 ff                	xor    %edi,%edi
    7fb5:	e8 66 fc ff ff       	callq  7c20 <exit@plt>
    7fba:	31 ed                	xor    %ebp,%ebp
    7fbc:	eb bc                	jmp    7f7a <main+0x24a>
      show_highscores ();
    7fbe:	e8 3d 50 00 00       	callq  d000 <show_highscores>
    7fc3:	eb ee                	jmp    7fb3 <main+0x283>
    fputs ("too many arguments\n", stderr);
    7fc5:	48 8b 0d d4 72 01 00 	mov    0x172d4(%rip),%rcx        # 1f2a0 <stderr@@GLIBC_2.2.5>
    7fcc:	ba 13 00 00 00       	mov    $0x13,%edx
    7fd1:	be 01 00 00 00       	mov    $0x1,%esi
    7fd6:	48 8d 3d 67 80 00 00 	lea    0x8067(%rip),%rdi        # 10044 <_IO_stdin_used+0x44>
    7fdd:	e8 4e fc ff ff       	callq  7c30 <fwrite@plt>
  if (version_flag) {
    7fe2:	83 7c 24 04 00       	cmpl   $0x0,0x4(%rsp)
    7fe7:	0f 85 dc 01 00 00    	jne    81c9 <main+0x499>
    FILE *out = error_flag ? stderr : stdout;
    7fed:	4c 8b 25 ac 72 01 00 	mov    0x172ac(%rip),%r12        # 1f2a0 <stderr@@GLIBC_2.2.5>
    7ff4:	bd 01 00 00 00       	mov    $0x1,%ebp

# ifdef __va_arg_pack
__fortify_function int
fprintf (FILE *__restrict __stream, const char *__restrict __fmt, ...)
{
  return __fprintf_chk (__stream, __USE_FORTIFY_LEVEL - 1, __fmt,
    7ff9:	48 8b 0d 08 8e 01 00 	mov    0x18e08(%rip),%rcx        # 20e08 <my_name>
    8000:	48 8d 15 63 80 00 00 	lea    0x8063(%rip),%rdx        # 1006a <_IO_stdin_used+0x6a>
    8007:	4c 89 e7             	mov    %r12,%rdi
    800a:	31 c0                	xor    %eax,%eax
    800c:	be 01 00 00 00       	mov    $0x1,%esi
    8011:	e8 2a fc ff ff       	callq  7c40 <__fprintf_chk@plt>
    fputs ("The options are\n", out);
    8016:	4c 89 e1             	mov    %r12,%rcx
    8019:	ba 10 00 00 00       	mov    $0x10,%edx
    801e:	be 01 00 00 00       	mov    $0x1,%esi
    8023:	48 8d 3d 56 80 00 00 	lea    0x8056(%rip),%rdi        # 10080 <_IO_stdin_used+0x80>
    802a:	e8 01 fc ff ff       	callq  7c30 <fwrite@plt>
    fputs (OPT("-h","--help         ") "show this message and exit\n", out);
    802f:	4c 89 e1             	mov    %r12,%rcx
    8032:	ba 34 00 00 00       	mov    $0x34,%edx
    8037:	be 01 00 00 00       	mov    $0x1,%esi
    803c:	48 8d 3d 95 81 00 00 	lea    0x8195(%rip),%rdi        # 101d8 <_IO_stdin_used+0x1d8>
    8043:	e8 e8 fb ff ff       	callq  7c30 <fwrite@plt>
    fputs (OPT("-m","--mesg         ") "imply the effect of \"mesg n\"\n",
    8048:	4c 89 e1             	mov    %r12,%rcx
    804b:	ba 36 00 00 00       	mov    $0x36,%edx
    8050:	be 01 00 00 00       	mov    $0x1,%esi
    8055:	48 8d 3d b4 81 00 00 	lea    0x81b4(%rip),%rdi        # 10210 <_IO_stdin_used+0x210>
    805c:	e8 cf fb ff ff       	callq  7c30 <fwrite@plt>
    fputs (OPT("-n","--no-title     ") "omit the title screen\n", out);
    8061:	4c 89 e1             	mov    %r12,%rcx
    8064:	ba 2f 00 00 00       	mov    $0x2f,%edx
    8069:	be 01 00 00 00       	mov    $0x1,%esi
    806e:	48 8d 3d d3 81 00 00 	lea    0x81d3(%rip),%rdi        # 10248 <_IO_stdin_used+0x248>
    8075:	e8 b6 fb ff ff       	callq  7c30 <fwrite@plt>
    fputs (OPT("-s","--show-scores  ") "only show the highscore list\n", out);
    807a:	4c 89 e1             	mov    %r12,%rcx
    807d:	ba 36 00 00 00       	mov    $0x36,%edx
    8082:	be 01 00 00 00       	mov    $0x1,%esi
    8087:	48 8d 3d ea 81 00 00 	lea    0x81ea(%rip),%rdi        # 10278 <_IO_stdin_used+0x278>
    808e:	e8 9d fb ff ff       	callq  7c30 <fwrite@plt>
    fputs (OPT("-V","--version      ") "show the version number and exit\n\n",
    8093:	4c 89 e1             	mov    %r12,%rcx
    8096:	ba 3b 00 00 00       	mov    $0x3b,%edx
    809b:	be 01 00 00 00       	mov    $0x1,%esi
    80a0:	48 8d 3d 09 82 00 00 	lea    0x8209(%rip),%rdi        # 102b0 <_IO_stdin_used+0x2b0>
    80a7:	e8 84 fb ff ff       	callq  7c30 <fwrite@plt>
    fputs ("Please report bugs to <voss@seehuhn.de>.\n", out);
    80ac:	48 8d 3d 3d 82 00 00 	lea    0x823d(%rip),%rdi        # 102f0 <_IO_stdin_used+0x2f0>
    80b3:	4c 89 e1             	mov    %r12,%rcx
    80b6:	ba 29 00 00 00       	mov    $0x29,%edx
    80bb:	be 01 00 00 00       	mov    $0x1,%esi
    80c0:	e8 6b fb ff ff       	callq  7c30 <fwrite@plt>
    exit (error_flag);
    80c5:	89 ef                	mov    %ebp,%edi
    80c7:	e8 54 fb ff ff       	callq  7c20 <exit@plt>
  my_name = xstrdup (my_name ? my_name+1 : argv[0]);
    80cc:	48 8b 7d 00          	mov    0x0(%rbp),%rdi
    80d0:	e9 f8 fd ff ff       	jmpq   7ecd <main+0x19d>
    }
    exit (0);
  }

  initialise_signals ();
    80d5:	e8 26 63 00 00       	callq  e400 <initialise_signals>

  allocate_windows ();
    80da:	e8 21 04 00 00       	callq  8500 <allocate_windows>
  curses_initialised = 1;
    80df:	c7 05 c7 71 01 00 01 	movl   $0x1,0x171c7(%rip)        # 1f2b0 <curses_initialised>
    80e6:	00 00 00 
  prepare_screen ();
    80e9:	e8 c2 03 00 00       	callq  84b0 <prepare_screen>

  install_keys ();
    80ee:	e8 9d 65 00 00       	callq  e690 <install_keys>
  setup_title_mode ();
    80f3:	e8 c8 09 00 00       	callq  8ac0 <setup_title_mode>
  setup_pager_mode ();
    80f8:	e8 b3 0d 00 00       	callq  8eb0 <setup_pager_mode>
  setup_game_mode ();
    80fd:	e8 ce 13 00 00       	callq  94d0 <setup_game_mode>
  setup_highscore_mode ();
    8102:	e8 89 50 00 00       	callq  d190 <setup_highscore_mode>

  clear_windows ();
    8107:	e8 b4 04 00 00       	callq  85c0 <clear_windows>

  resize_ground (1);
    810c:	bf 01 00 00 00       	mov    $0x1,%edi
    8111:	e8 4a 23 00 00       	callq  a460 <resize_ground>
  initialise_buggy ();
    8116:	e8 15 28 00 00       	callq  a930 <initialise_buggy>

  if (title_flag) {
    mode_change (title_mode, 0);
    811b:	31 f6                	xor    %esi,%esi
  if (title_flag) {
    811d:	83 7c 24 0c 00       	cmpl   $0x0,0xc(%rsp)
    8122:	0f 85 90 00 00 00    	jne    81b8 <main+0x488>
  } else {
    mode_change (game_mode, 0);
    8128:	48 8b 3d 11 8d 01 00 	mov    0x18d11(%rip),%rdi        # 20e40 <game_mode>
    812f:	e8 2c 06 00 00       	callq  8760 <mode_change>
  }
  main_loop ();
    8134:	e8 27 58 00 00       	callq  d960 <main_loop>
  mode_change (NULL, 0);
    8139:	31 f6                	xor    %esi,%esi
    813b:	31 ff                	xor    %edi,%edi
    813d:	e8 1e 06 00 00       	callq  8760 <mode_change>
  if (! curses_initialised)  return;
    8142:	83 3d 67 71 01 00 00 	cmpl   $0x0,0x17167(%rip)        # 1f2b0 <curses_initialised>
    8149:	74 05                	je     8150 <main+0x420>
    814b:	e8 c0 01 00 00       	callq  8310 <prepare_for_exit.part.0>

  prepare_for_exit ();
  return  0;
}
    8150:	48 8b 84 24 08 01 00 	mov    0x108(%rsp),%rax
    8157:	00 
    8158:	64 48 33 04 25 28 00 	xor    %fs:0x28,%rax
    815f:	00 00 
    8161:	0f 85 97 00 00 00    	jne    81fe <main+0x4ce>
    8167:	48 81 c4 18 01 00 00 	add    $0x118,%rsp
    816e:	31 c0                	xor    %eax,%eax
    8170:	5b                   	pop    %rbx
    8171:	5d                   	pop    %rbp
    8172:	41 5c                	pop    %r12
    8174:	41 5d                	pop    %r13
    8176:	41 5e                	pop    %r14
    8178:	41 5f                	pop    %r15
    817a:	c3                   	retq   
    puts ("Moon-Buggy " VERSION);
    817b:	48 8d 3d d6 7e 00 00 	lea    0x7ed6(%rip),%rdi        # 10058 <_IO_stdin_used+0x58>
    8182:	e8 09 f6 ff ff       	callq  7790 <puts@plt>
    puts ("Copyright 1998-2006  Jochen Voss");
    8187:	48 8d 3d 0a 7f 00 00 	lea    0x7f0a(%rip),%rdi        # 10098 <_IO_stdin_used+0x98>
    818e:	e8 fd f5 ff ff       	callq  7790 <puts@plt>
    puts ("\
    8193:	48 8d 3d 26 7f 00 00 	lea    0x7f26(%rip),%rdi        # 100c0 <_IO_stdin_used+0xc0>
    819a:	e8 f1 f5 ff ff       	callq  7790 <puts@plt>
    puts ("\
    819f:	48 8d 3d 62 7f 00 00 	lea    0x7f62(%rip),%rdi        # 10108 <_IO_stdin_used+0x108>
    81a6:	e8 e5 f5 ff ff       	callq  7790 <puts@plt>
    if (! error_flag)  exit (0);
    81ab:	85 ed                	test   %ebp,%ebp
    81ad:	0f 84 00 fe ff ff    	je     7fb3 <main+0x283>
    81b3:	e9 35 fe ff ff       	jmpq   7fed <main+0x2bd>
    mode_change (title_mode, 0);
    81b8:	48 8b 3d 61 8c 01 00 	mov    0x18c61(%rip),%rdi        # 20e20 <title_mode>
    81bf:	e8 9c 05 00 00       	callq  8760 <mode_change>
    81c4:	e9 6b ff ff ff       	jmpq   8134 <main+0x404>
    puts ("Moon-Buggy " VERSION);
    81c9:	48 8d 3d 88 7e 00 00 	lea    0x7e88(%rip),%rdi        # 10058 <_IO_stdin_used+0x58>
    81d0:	e8 bb f5 ff ff       	callq  7790 <puts@plt>
    puts ("Copyright 1998-2006  Jochen Voss");
    81d5:	48 8d 3d bc 7e 00 00 	lea    0x7ebc(%rip),%rdi        # 10098 <_IO_stdin_used+0x98>
    81dc:	e8 af f5 ff ff       	callq  7790 <puts@plt>
    puts ("\
    81e1:	48 8d 3d d8 7e 00 00 	lea    0x7ed8(%rip),%rdi        # 100c0 <_IO_stdin_used+0xc0>
    81e8:	e8 a3 f5 ff ff       	callq  7790 <puts@plt>
    puts ("\
    81ed:	48 8d 3d 14 7f 00 00 	lea    0x7f14(%rip),%rdi        # 10108 <_IO_stdin_used+0x108>
    81f4:	e8 97 f5 ff ff       	callq  7790 <puts@plt>
    if (! error_flag)  exit (0);
    81f9:	e9 ef fd ff ff       	jmpq   7fed <main+0x2bd>
}
    81fe:	e8 5d f6 ff ff       	callq  7860 <__stack_chk_fail@plt>
    FILE *out = error_flag ? stderr : stdout;
    8203:	4c 8b 25 56 70 01 00 	mov    0x17056(%rip),%r12        # 1f260 <stdout@@GLIBC_2.2.5>
    820a:	85 ed                	test   %ebp,%ebp
    820c:	0f 84 e7 fd ff ff    	je     7ff9 <main+0x2c9>
    8212:	e9 d6 fd ff ff       	jmpq   7fed <main+0x2bd>
    8217:	66 0f 1f 84 00 00 00 	nopw   0x0(%rax,%rax,1)
    821e:	00 00 

0000000000008220 <_start>:
    8220:	f3 0f 1e fa          	endbr64 
    8224:	31 ed                	xor    %ebp,%ebp
    8226:	49 89 d1             	mov    %rdx,%r9
    8229:	5e                   	pop    %rsi
    822a:	48 89 e2             	mov    %rsp,%rdx
    822d:	48 83 e4 f0          	and    $0xfffffffffffffff0,%rsp
    8231:	50                   	push   %rax
    8232:	54                   	push   %rsp
    8233:	4c 8d 05 e6 75 00 00 	lea    0x75e6(%rip),%r8        # f820 <__libc_csu_fini>
    823a:	48 8d 0d 6f 75 00 00 	lea    0x756f(%rip),%rcx        # f7b0 <__libc_csu_init>
    8241:	48 8d 3d e8 fa ff ff 	lea    -0x518(%rip),%rdi        # 7d30 <main>
    8248:	ff 15 8a 6d 01 00    	callq  *0x16d8a(%rip)        # 1efd8 <__libc_start_main@GLIBC_2.2.5>
    824e:	f4                   	hlt    
    824f:	90                   	nop

0000000000008250 <deregister_tm_clones>:
    8250:	48 8d 3d f1 6f 01 00 	lea    0x16ff1(%rip),%rdi        # 1f248 <__TMC_END__>
    8257:	48 8d 05 ea 6f 01 00 	lea    0x16fea(%rip),%rax        # 1f248 <__TMC_END__>
    825e:	48 39 f8             	cmp    %rdi,%rax
    8261:	74 15                	je     8278 <deregister_tm_clones+0x28>
    8263:	48 8b 05 66 6d 01 00 	mov    0x16d66(%rip),%rax        # 1efd0 <_ITM_deregisterTMCloneTable>
    826a:	48 85 c0             	test   %rax,%rax
    826d:	74 09                	je     8278 <deregister_tm_clones+0x28>
    826f:	ff e0                	jmpq   *%rax
    8271:	0f 1f 80 00 00 00 00 	nopl   0x0(%rax)
    8278:	c3                   	retq   
    8279:	0f 1f 80 00 00 00 00 	nopl   0x0(%rax)

0000000000008280 <register_tm_clones>:
    8280:	48 8d 3d c1 6f 01 00 	lea    0x16fc1(%rip),%rdi        # 1f248 <__TMC_END__>
    8287:	48 8d 35 ba 6f 01 00 	lea    0x16fba(%rip),%rsi        # 1f248 <__TMC_END__>
    828e:	48 29 fe             	sub    %rdi,%rsi
    8291:	48 89 f0             	mov    %rsi,%rax
    8294:	48 c1 ee 3f          	shr    $0x3f,%rsi
    8298:	48 c1 f8 03          	sar    $0x3,%rax
    829c:	48 01 c6             	add    %rax,%rsi
    829f:	48 d1 fe             	sar    %rsi
    82a2:	74 14                	je     82b8 <register_tm_clones+0x38>
    82a4:	48 8b 05 3d 6d 01 00 	mov    0x16d3d(%rip),%rax        # 1efe8 <_ITM_registerTMCloneTable>
    82ab:	48 85 c0             	test   %rax,%rax
    82ae:	74 08                	je     82b8 <register_tm_clones+0x38>
    82b0:	ff e0                	jmpq   *%rax
    82b2:	66 0f 1f 44 00 00    	nopw   0x0(%rax,%rax,1)
    82b8:	c3                   	retq   
    82b9:	0f 1f 80 00 00 00 00 	nopl   0x0(%rax)

00000000000082c0 <__do_global_dtors_aux>:
    82c0:	f3 0f 1e fa          	endbr64 
    82c4:	80 3d dd 6f 01 00 00 	cmpb   $0x0,0x16fdd(%rip)        # 1f2a8 <completed.8061>
    82cb:	75 2b                	jne    82f8 <__do_global_dtors_aux+0x38>
    82cd:	55                   	push   %rbp
    82ce:	48 83 3d 1a 6d 01 00 	cmpq   $0x0,0x16d1a(%rip)        # 1eff0 <__cxa_finalize@GLIBC_2.2.5>
    82d5:	00 
    82d6:	48 89 e5             	mov    %rsp,%rbp
    82d9:	74 0c                	je     82e7 <__do_global_dtors_aux+0x27>
    82db:	48 8b 3d 26 6d 01 00 	mov    0x16d26(%rip),%rdi        # 1f008 <__dso_handle>
    82e2:	e8 b9 f3 ff ff       	callq  76a0 <__cxa_finalize@plt>
    82e7:	e8 64 ff ff ff       	callq  8250 <deregister_tm_clones>
    82ec:	c6 05 b5 6f 01 00 01 	movb   $0x1,0x16fb5(%rip)        # 1f2a8 <completed.8061>
    82f3:	5d                   	pop    %rbp
    82f4:	c3                   	retq   
    82f5:	0f 1f 00             	nopl   (%rax)
    82f8:	c3                   	retq   
    82f9:	0f 1f 80 00 00 00 00 	nopl   0x0(%rax)

0000000000008300 <frame_dummy>:
    8300:	f3 0f 1e fa          	endbr64 
    8304:	e9 77 ff ff ff       	jmpq   8280 <register_tm_clones>
    8309:	0f 1f 80 00 00 00 00 	nopl   0x0(%rax)

0000000000008310 <prepare_for_exit.part.0>:
prepare_for_exit (void)
    8310:	48 83 ec 08          	sub    $0x8,%rsp
  term_restore ();
    8314:	e8 47 70 00 00       	callq  f360 <term_restore>
  show_cursor ();
    8319:	e8 82 71 00 00       	callq  f4a0 <show_cursor>
  wrefresh (moon);
    831e:	48 8b 3d f3 8a 01 00 	mov    0x18af3(%rip),%rdi        # 20e18 <moon>
    8325:	e8 d6 f5 ff ff       	callq  7900 <wrefresh@plt>
  wrefresh (message);
    832a:	48 8b 3d cf 8a 01 00 	mov    0x18acf(%rip),%rdi        # 20e00 <message>
    8331:	e8 ca f5 ff ff       	callq  7900 <wrefresh@plt>
  werase (status);
    8336:	48 8b 3d d3 8a 01 00 	mov    0x18ad3(%rip),%rdi        # 20e10 <status>
    833d:	e8 7e f3 ff ff       	callq  76c0 <werase@plt>
  wmove (status, 0, 0);
    8342:	48 8b 3d c7 8a 01 00 	mov    0x18ac7(%rip),%rdi        # 20e10 <status>
    8349:	31 d2                	xor    %edx,%edx
    834b:	31 f6                	xor    %esi,%esi
    834d:	e8 7e f8 ff ff       	callq  7bd0 <wmove@plt>
  wrefresh (status);
    8352:	48 8b 3d b7 8a 01 00 	mov    0x18ab7(%rip),%rdi        # 20e10 <status>
    8359:	e8 a2 f5 ff ff       	callq  7900 <wrefresh@plt>
  endwin ();
    835e:	e8 1d f9 ff ff       	callq  7c80 <endwin@plt>
  fflush (NULL);
    8363:	31 ff                	xor    %edi,%edi
}
    8365:	48 83 c4 08          	add    $0x8,%rsp
  fflush (NULL);
    8369:	e9 f2 f6 ff ff       	jmpq   7a60 <fflush@plt>
    836e:	66 90                	xchg   %ax,%ax

0000000000008370 <print_message>:
{
    8370:	f3 0f 1e fa          	endbr64 
  if (curses_initialised) {
    8374:	8b 05 36 6f 01 00    	mov    0x16f36(%rip),%eax        # 1f2b0 <curses_initialised>
{
    837a:	41 54                	push   %r12
    837c:	49 89 fc             	mov    %rdi,%r12
  if (curses_initialised) {
    837f:	85 c0                	test   %eax,%eax
    8381:	74 35                	je     83b8 <print_message+0x48>
    werase (message);
    8383:	48 8b 3d 76 8a 01 00 	mov    0x18a76(%rip),%rdi        # 20e00 <message>
    838a:	e8 31 f3 ff ff       	callq  76c0 <werase@plt>
    waddstr (message, str);
    838f:	48 8b 3d 6a 8a 01 00 	mov    0x18a6a(%rip),%rdi        # 20e00 <message>
    8396:	4c 89 e6             	mov    %r12,%rsi
    8399:	ba ff ff ff ff       	mov    $0xffffffff,%edx
    839e:	e8 fd f8 ff ff       	callq  7ca0 <waddnstr@plt>
    wnoutrefresh (message);
    83a3:	48 8b 3d 56 8a 01 00 	mov    0x18a56(%rip),%rdi        # 20e00 <message>
}
    83aa:	41 5c                	pop    %r12
    wnoutrefresh (message);
    83ac:	e9 0f f7 ff ff       	jmpq   7ac0 <wnoutrefresh@plt>
    83b1:	0f 1f 80 00 00 00 00 	nopl   0x0(%rax)
    83b8:	48 89 f9             	mov    %rdi,%rcx
    83bb:	48 8b 3d de 6e 01 00 	mov    0x16ede(%rip),%rdi        # 1f2a0 <stderr@@GLIBC_2.2.5>
    83c2:	31 c0                	xor    %eax,%eax
}
    83c4:	41 5c                	pop    %r12
    83c6:	48 8d 15 37 7c 00 00 	lea    0x7c37(%rip),%rdx        # 10004 <_IO_stdin_used+0x4>
    83cd:	be 01 00 00 00       	mov    $0x1,%esi
    83d2:	e9 69 f8 ff ff       	jmpq   7c40 <__fprintf_chk@plt>
    83d7:	66 0f 1f 84 00 00 00 	nopw   0x0(%rax,%rax,1)
    83de:	00 00 

00000000000083e0 <print_hint>:
{
    83e0:	f3 0f 1e fa          	endbr64 
  if (curses_initialised) {
    83e4:	8b 05 c6 6e 01 00    	mov    0x16ec6(%rip),%eax        # 1f2b0 <curses_initialised>
    83ea:	85 c0                	test   %eax,%eax
    83ec:	0f 84 ae 00 00 00    	je     84a0 <print_hint+0xc0>
{
    83f2:	41 54                	push   %r12
    83f4:	55                   	push   %rbp
    83f5:	48 89 fd             	mov    %rdi,%rbp
    83f8:	48 83 ec 08          	sub    $0x8,%rsp
    int  len = strlen (str);
    83fc:	e8 3f f4 ff ff       	callq  7840 <strlen@plt>
    int  cols = COLS;
    8401:	8b 35 79 6e 01 00    	mov    0x16e79(%rip),%esi        # 1f280 <COLS@@NCURSES6_TINFO_5.0.19991023>
    if (car_base+3+len/2 >= cols) {
    8407:	8b 15 eb 89 01 00    	mov    0x189eb(%rip),%edx        # 20df8 <car_base>
    840d:	89 c1                	mov    %eax,%ecx
    840f:	c1 e9 1f             	shr    $0x1f,%ecx
    8412:	83 c2 03             	add    $0x3,%edx
      pos = cols - len - 1;
    8415:	41 89 f4             	mov    %esi,%r12d
    if (car_base+3+len/2 >= cols) {
    8418:	01 c1                	add    %eax,%ecx
      pos = cols - len - 1;
    841a:	41 29 c4             	sub    %eax,%r12d
    wmove (moon, LINES-11, 0);
    841d:	8b 05 61 6e 01 00    	mov    0x16e61(%rip),%eax        # 1f284 <LINES@@NCURSES6_TINFO_5.0.19991023>
    if (car_base+3+len/2 >= cols) {
    8423:	d1 f9                	sar    %ecx
      pos = cols - len - 1;
    8425:	41 83 ec 01          	sub    $0x1,%r12d
    if (car_base+3+len/2 >= cols) {
    8429:	8d 3c 11             	lea    (%rcx,%rdx,1),%edi
      pos = cols - len - 1;
    842c:	29 ca                	sub    %ecx,%edx
    842e:	39 f7                	cmp    %esi,%edi
    wmove (moon, LINES-11, 0);
    8430:	48 8b 3d e1 89 01 00 	mov    0x189e1(%rip),%rdi        # 20e18 <moon>
    8437:	8d 70 f5             	lea    -0xb(%rax),%esi
      pos = cols - len - 1;
    843a:	44 0f 4c e2          	cmovl  %edx,%r12d
    wmove (moon, LINES-11, 0);
    843e:	31 d2                	xor    %edx,%edx
    8440:	e8 8b f7 ff ff       	callq  7bd0 <wmove@plt>
    wclrtoeol (moon);
    8445:	48 8b 3d cc 89 01 00 	mov    0x189cc(%rip),%rdi        # 20e18 <moon>
    844c:	e8 8f f7 ff ff       	callq  7be0 <wclrtoeol@plt>
    mvwaddstr (moon, LINES-11, pos, str);
    8451:	8b 05 2d 6e 01 00    	mov    0x16e2d(%rip),%eax        # 1f284 <LINES@@NCURSES6_TINFO_5.0.19991023>
    8457:	48 8b 3d ba 89 01 00 	mov    0x189ba(%rip),%rdi        # 20e18 <moon>
    845e:	44 89 e2             	mov    %r12d,%edx
    8461:	8d 70 f5             	lea    -0xb(%rax),%esi
    8464:	e8 67 f7 ff ff       	callq  7bd0 <wmove@plt>
    8469:	83 f8 ff             	cmp    $0xffffffff,%eax
    846c:	75 1a                	jne    8488 <print_hint+0xa8>
    wnoutrefresh (moon);
    846e:	48 8b 3d a3 89 01 00 	mov    0x189a3(%rip),%rdi        # 20e18 <moon>
}
    8475:	48 83 c4 08          	add    $0x8,%rsp
    8479:	5d                   	pop    %rbp
    847a:	41 5c                	pop    %r12
    wnoutrefresh (moon);
    847c:	e9 3f f6 ff ff       	jmpq   7ac0 <wnoutrefresh@plt>
    8481:	0f 1f 80 00 00 00 00 	nopl   0x0(%rax)
    mvwaddstr (moon, LINES-11, pos, str);
    8488:	48 8b 3d 89 89 01 00 	mov    0x18989(%rip),%rdi        # 20e18 <moon>
    848f:	ba ff ff ff ff       	mov    $0xffffffff,%edx
    8494:	48 89 ee             	mov    %rbp,%rsi
    8497:	e8 04 f8 ff ff       	callq  7ca0 <waddnstr@plt>
    849c:	eb d0                	jmp    846e <print_hint+0x8e>
    849e:	66 90                	xchg   %ax,%ax
    84a0:	c3                   	retq   
    84a1:	66 66 2e 0f 1f 84 00 	data16 nopw %cs:0x0(%rax,%rax,1)
    84a8:	00 00 00 00 
    84ac:	0f 1f 40 00          	nopl   0x0(%rax)

00000000000084b0 <prepare_screen>:
{
    84b0:	f3 0f 1e fa          	endbr64 
    84b4:	48 83 ec 08          	sub    $0x8,%rsp
  cbreak ();
    84b8:	e8 83 f5 ff ff       	callq  7a40 <cbreak@plt>
  noecho ();
    84bd:	e8 8e f3 ff ff       	callq  7850 <noecho@plt>
  hide_cursor ();
    84c2:	e8 89 6f 00 00       	callq  f450 <hide_cursor>
  term_prepare (mesg_flag);
    84c7:	8b 3d df 6d 01 00    	mov    0x16ddf(%rip),%edi        # 1f2ac <mesg_flag>
}
    84cd:	48 83 c4 08          	add    $0x8,%rsp
  term_prepare (mesg_flag);
    84d1:	e9 2a 6d 00 00       	jmpq   f200 <term_prepare>
    84d6:	66 2e 0f 1f 84 00 00 	nopw   %cs:0x0(%rax,%rax,1)
    84dd:	00 00 00 

00000000000084e0 <prepare_for_exit>:
{
    84e0:	f3 0f 1e fa          	endbr64 
  if (! curses_initialised)  return;
    84e4:	8b 05 c6 6d 01 00    	mov    0x16dc6(%rip),%eax        # 1f2b0 <curses_initialised>
    84ea:	85 c0                	test   %eax,%eax
    84ec:	75 02                	jne    84f0 <prepare_for_exit+0x10>
}
    84ee:	c3                   	retq   
    84ef:	90                   	nop
    84f0:	e9 1b fe ff ff       	jmpq   8310 <prepare_for_exit.part.0>
    84f5:	66 66 2e 0f 1f 84 00 	data16 nopw %cs:0x0(%rax,%rax,1)
    84fc:	00 00 00 00 

0000000000008500 <allocate_windows>:
{
    8500:	f3 0f 1e fa          	endbr64 
    8504:	48 83 ec 08          	sub    $0x8,%rsp
  initscr ();
    8508:	e8 e3 f3 ff ff       	callq  78f0 <initscr@plt>
  moon = newwin (LINES-2, 0, 0, 0);
    850d:	8b 05 71 6d 01 00    	mov    0x16d71(%rip),%eax        # 1f284 <LINES@@NCURSES6_TINFO_5.0.19991023>
    8513:	31 c9                	xor    %ecx,%ecx
    8515:	31 d2                	xor    %edx,%edx
    8517:	31 f6                	xor    %esi,%esi
    8519:	8d 78 fe             	lea    -0x2(%rax),%edi
    851c:	e8 2f f2 ff ff       	callq  7750 <newwin@plt>
  keypad (moon, TRUE);
    8521:	be 01 00 00 00       	mov    $0x1,%esi
  moon = newwin (LINES-2, 0, 0, 0);
    8526:	48 89 c7             	mov    %rax,%rdi
    8529:	48 89 05 e8 88 01 00 	mov    %rax,0x188e8(%rip)        # 20e18 <moon>
  keypad (moon, TRUE);
    8530:	e8 fb f3 ff ff       	callq  7930 <keypad@plt>
  intrflush (moon, FALSE);
    8535:	48 8b 3d dc 88 01 00 	mov    0x188dc(%rip),%rdi        # 20e18 <moon>
    853c:	31 f6                	xor    %esi,%esi
    853e:	e8 ed f4 ff ff       	callq  7a30 <intrflush@plt>
  status = newwin (1, 0, LINES-1, 0);
    8543:	8b 05 3b 6d 01 00    	mov    0x16d3b(%rip),%eax        # 1f284 <LINES@@NCURSES6_TINFO_5.0.19991023>
    8549:	31 c9                	xor    %ecx,%ecx
    854b:	31 f6                	xor    %esi,%esi
    854d:	bf 01 00 00 00       	mov    $0x1,%edi
    8552:	8d 50 ff             	lea    -0x1(%rax),%edx
    8555:	e8 f6 f1 ff ff       	callq  7750 <newwin@plt>
  keypad (status, TRUE);
    855a:	be 01 00 00 00       	mov    $0x1,%esi
  status = newwin (1, 0, LINES-1, 0);
    855f:	48 89 c7             	mov    %rax,%rdi
    8562:	48 89 05 a7 88 01 00 	mov    %rax,0x188a7(%rip)        # 20e10 <status>
  keypad (status, TRUE);
    8569:	e8 c2 f3 ff ff       	callq  7930 <keypad@plt>
  intrflush (status, FALSE);
    856e:	48 8b 3d 9b 88 01 00 	mov    0x1889b(%rip),%rdi        # 20e10 <status>
    8575:	31 f6                	xor    %esi,%esi
    8577:	e8 b4 f4 ff ff       	callq  7a30 <intrflush@plt>
  message = newwin (1, 0, LINES-2, 0);
    857c:	8b 05 02 6d 01 00    	mov    0x16d02(%rip),%eax        # 1f284 <LINES@@NCURSES6_TINFO_5.0.19991023>
    8582:	31 c9                	xor    %ecx,%ecx
    8584:	31 f6                	xor    %esi,%esi
    8586:	bf 01 00 00 00       	mov    $0x1,%edi
    858b:	8d 50 fe             	lea    -0x2(%rax),%edx
    858e:	e8 bd f1 ff ff       	callq  7750 <newwin@plt>
  keypad (message, TRUE);
    8593:	be 01 00 00 00       	mov    $0x1,%esi
  message = newwin (1, 0, LINES-2, 0);
    8598:	48 89 c7             	mov    %rax,%rdi
    859b:	48 89 05 5e 88 01 00 	mov    %rax,0x1885e(%rip)        # 20e00 <message>
  keypad (message, TRUE);
    85a2:	e8 89 f3 ff ff       	callq  7930 <keypad@plt>
  intrflush (message, FALSE);
    85a7:	48 8b 3d 52 88 01 00 	mov    0x18852(%rip),%rdi        # 20e00 <message>
    85ae:	31 f6                	xor    %esi,%esi
}
    85b0:	48 83 c4 08          	add    $0x8,%rsp
  intrflush (message, FALSE);
    85b4:	e9 77 f4 ff ff       	jmpq   7a30 <intrflush@plt>
    85b9:	0f 1f 80 00 00 00 00 	nopl   0x0(%rax)

00000000000085c0 <clear_windows>:
{
    85c0:	f3 0f 1e fa          	endbr64 
    85c4:	48 83 ec 08          	sub    $0x8,%rsp
  wclear (moon);  wnoutrefresh (moon);
    85c8:	48 8b 3d 49 88 01 00 	mov    0x18849(%rip),%rdi        # 20e18 <moon>
    85cf:	e8 2c f2 ff ff       	callq  7800 <wclear@plt>
    85d4:	48 8b 3d 3d 88 01 00 	mov    0x1883d(%rip),%rdi        # 20e18 <moon>
    85db:	e8 e0 f4 ff ff       	callq  7ac0 <wnoutrefresh@plt>
  wclear (status);  wnoutrefresh (status);
    85e0:	48 8b 3d 29 88 01 00 	mov    0x18829(%rip),%rdi        # 20e10 <status>
    85e7:	e8 14 f2 ff ff       	callq  7800 <wclear@plt>
    85ec:	48 8b 3d 1d 88 01 00 	mov    0x1881d(%rip),%rdi        # 20e10 <status>
    85f3:	e8 c8 f4 ff ff       	callq  7ac0 <wnoutrefresh@plt>
  wclear (message);  wnoutrefresh (message);
    85f8:	48 8b 3d 01 88 01 00 	mov    0x18801(%rip),%rdi        # 20e00 <message>
    85ff:	e8 fc f1 ff ff       	callq  7800 <wclear@plt>
    8604:	48 8b 3d f5 87 01 00 	mov    0x187f5(%rip),%rdi        # 20e00 <message>
}
    860b:	48 83 c4 08          	add    $0x8,%rsp
  wclear (message);  wnoutrefresh (message);
    860f:	e9 ac f4 ff ff       	jmpq   7ac0 <wnoutrefresh@plt>
    8614:	66 2e 0f 1f 84 00 00 	nopw   %cs:0x0(%rax,%rax,1)
    861b:	00 00 00 
    861e:	66 90                	xchg   %ax,%ax

0000000000008620 <mode_redraw.part.0>:
  }
  doupdate ();
}

void
mode_redraw (void)
    8620:	48 83 ec 08          	sub    $0x8,%rsp
/* Make the current mode redraw the screen but leave the status message intact.
 * This is also called after the screen is resized.  */
{
  if (! mode_entered)  return;
  describe_keys (current->keys.used, current->keys.data);
    8624:	48 8b 05 95 6c 01 00 	mov    0x16c95(%rip),%rax        # 1f2c0 <current>
    862b:	48 8b 70 20          	mov    0x20(%rax),%rsi
    862f:	8b 78 28             	mov    0x28(%rax),%edi
    8632:	e8 c9 65 00 00       	callq  ec00 <describe_keys>
  if (current->redraw)  current->redraw ();
    8637:	48 8b 05 82 6c 01 00 	mov    0x16c82(%rip),%rax        # 1f2c0 <current>
    863e:	48 8b 40 10          	mov    0x10(%rax),%rax
    8642:	48 85 c0             	test   %rax,%rax
    8645:	74 02                	je     8649 <mode_redraw.part.0+0x29>
    8647:	ff d0                	callq  *%rax
  doupdate ();
}
    8649:	48 83 c4 08          	add    $0x8,%rsp
  doupdate ();
    864d:	e9 4e f5 ff ff       	jmpq   7ba0 <doupdate@plt>
    8652:	66 66 2e 0f 1f 84 00 	data16 nopw %cs:0x0(%rax,%rax,1)
    8659:	00 00 00 00 
    865d:	0f 1f 00             	nopl   (%rax)

0000000000008660 <new_mode>:
{
    8660:	f3 0f 1e fa          	endbr64 
    8664:	41 54                	push   %r12
  struct mode *res = xmalloc (sizeof (struct mode));
    8666:	bf 38 00 00 00       	mov    $0x38,%edi
    866b:	e8 f0 6f 00 00       	callq  f660 <xmalloc>
  DA_INIT (res->keys, struct binding);
    8670:	bf 60 00 00 00       	mov    $0x60,%edi
  res->enter = NULL;
    8675:	48 c7 00 00 00 00 00 	movq   $0x0,(%rax)
  struct mode *res = xmalloc (sizeof (struct mode));
    867c:	49 89 c4             	mov    %rax,%r12
  res->leave = NULL;
    867f:	48 c7 40 08 00 00 00 	movq   $0x0,0x8(%rax)
    8686:	00 
  res->redraw = NULL;
    8687:	48 c7 40 10 00 00 00 	movq   $0x0,0x10(%rax)
    868e:	00 
  DA_INIT (res->keys, struct binding);
    868f:	c7 40 2c 04 00 00 00 	movl   $0x4,0x2c(%rax)
    8696:	e8 c5 6f 00 00       	callq  f660 <xmalloc>
    869b:	41 c7 44 24 28 00 00 	movl   $0x0,0x28(%r12)
    86a2:	00 00 
    86a4:	49 89 44 24 20       	mov    %rax,0x20(%r12)
}
    86a9:	4c 89 e0             	mov    %r12,%rax
  res->keypress = NULL;
    86ac:	49 c7 44 24 30 00 00 	movq   $0x0,0x30(%r12)
    86b3:	00 00 
}
    86b5:	41 5c                	pop    %r12
    86b7:	c3                   	retq   
    86b8:	0f 1f 84 00 00 00 00 	nopl   0x0(%rax,%rax,1)
    86bf:	00 

00000000000086c0 <mode_add_key>:
{
    86c0:	f3 0f 1e fa          	endbr64 
    86c4:	41 55                	push   %r13
    86c6:	41 89 f5             	mov    %esi,%r13d
    86c9:	41 54                	push   %r12
    86cb:	49 89 d4             	mov    %rdx,%r12
    86ce:	55                   	push   %rbp
    86cf:	89 cd                	mov    %ecx,%ebp
    86d1:	53                   	push   %rbx
    86d2:	48 89 fb             	mov    %rdi,%rbx
    86d5:	48 83 ec 08          	sub    $0x8,%rsp
  DA_ADD_EMPTY (m->keys, struct binding, keys);
    86d9:	8b 77 28             	mov    0x28(%rdi),%esi
    86dc:	44 8b 47 2c          	mov    0x2c(%rdi),%r8d
    86e0:	48 8b 7f 20          	mov    0x20(%rdi),%rdi
    86e4:	44 39 c6             	cmp    %r8d,%esi
    86e7:	7d 27                	jge    8710 <mode_add_key+0x50>
    86e9:	48 63 c6             	movslq %esi,%rax
    86ec:	83 c6 01             	add    $0x1,%esi
    86ef:	48 8d 04 40          	lea    (%rax,%rax,2),%rax
    86f3:	89 73 28             	mov    %esi,0x28(%rbx)
    86f6:	48 8d 04 c7          	lea    (%rdi,%rax,8),%rax
  keys->meanings = meanings;
    86fa:	44 89 28             	mov    %r13d,(%rax)
  keys->desc = desc;
    86fd:	4c 89 60 08          	mov    %r12,0x8(%rax)
  keys->res = res;
    8701:	89 68 10             	mov    %ebp,0x10(%rax)
}
    8704:	48 83 c4 08          	add    $0x8,%rsp
    8708:	5b                   	pop    %rbx
    8709:	5d                   	pop    %rbp
    870a:	41 5c                	pop    %r12
    870c:	41 5d                	pop    %r13
    870e:	c3                   	retq   
    870f:	90                   	nop
  DA_ADD_EMPTY (m->keys, struct binding, keys);
    8710:	41 83 c0 04          	add    $0x4,%r8d
    8714:	44 89 43 2c          	mov    %r8d,0x2c(%rbx)
    8718:	4d 63 c0             	movslq %r8d,%r8
    871b:	4b 8d 34 40          	lea    (%r8,%r8,2),%rsi
    871f:	48 c1 e6 03          	shl    $0x3,%rsi
    8723:	e8 68 6f 00 00       	callq  f690 <xrealloc>
    8728:	8b 73 28             	mov    0x28(%rbx),%esi
    872b:	48 89 43 20          	mov    %rax,0x20(%rbx)
    872f:	48 89 c7             	mov    %rax,%rdi
    8732:	eb b5                	jmp    86e9 <mode_add_key+0x29>
    8734:	66 66 2e 0f 1f 84 00 	data16 nopw %cs:0x0(%rax,%rax,1)
    873b:	00 00 00 00 
    873f:	90                   	nop

0000000000008740 <mode_complete>:
{
    8740:	f3 0f 1e fa          	endbr64 
  mode_add_key (m, mbk_redraw, "redraw", 0);
    8744:	31 c9                	xor    %ecx,%ecx
    8746:	48 8d 15 47 7c 00 00 	lea    0x7c47(%rip),%rdx        # 10394 <_IO_stdin_used+0x394>
    874d:	be 00 20 00 00       	mov    $0x2000,%esi
    8752:	e9 69 ff ff ff       	jmpq   86c0 <mode_add_key>
    8757:	66 0f 1f 84 00 00 00 	nopw   0x0(%rax,%rax,1)
    875e:	00 00 

0000000000008760 <mode_change>:
{
    8760:	f3 0f 1e fa          	endbr64 
    8764:	55                   	push   %rbp
    8765:	48 89 fd             	mov    %rdi,%rbp
    8768:	53                   	push   %rbx
    8769:	89 f3                	mov    %esi,%ebx
    876b:	48 83 ec 08          	sub    $0x8,%rsp
  if (mode_entered && current->leave)  current->leave ();
    876f:	8b 05 47 6b 01 00    	mov    0x16b47(%rip),%eax        # 1f2bc <mode_entered>
    8775:	85 c0                	test   %eax,%eax
    8777:	74 12                	je     878b <mode_change+0x2b>
    8779:	48 8b 05 40 6b 01 00 	mov    0x16b40(%rip),%rax        # 1f2c0 <current>
    8780:	48 8b 40 08          	mov    0x8(%rax),%rax
    8784:	48 85 c0             	test   %rax,%rax
    8787:	74 02                	je     878b <mode_change+0x2b>
    8789:	ff d0                	callq  *%rax
  current = m;
    878b:	48 89 2d 2e 6b 01 00 	mov    %rbp,0x16b2e(%rip)        # 1f2c0 <current>
  mode_seed = seed;
    8792:	89 1d 20 6b 01 00    	mov    %ebx,0x16b20(%rip)        # 1f2b8 <mode_seed>
  mode_entered = 0;
    8798:	c7 05 1a 6b 01 00 00 	movl   $0x0,0x16b1a(%rip)        # 1f2bc <mode_entered>
    879f:	00 00 00 
}
    87a2:	48 83 c4 08          	add    $0x8,%rsp
    87a6:	5b                   	pop    %rbx
    87a7:	5d                   	pop    %rbp
    87a8:	c3                   	retq   
    87a9:	0f 1f 80 00 00 00 00 	nopl   0x0(%rax)

00000000000087b0 <mode_update>:
{
    87b0:	f3 0f 1e fa          	endbr64 
  if (! mode_entered) {
    87b4:	8b 15 02 6b 01 00    	mov    0x16b02(%rip),%edx        # 1f2bc <mode_entered>
    87ba:	85 d2                	test   %edx,%edx
    87bc:	74 0a                	je     87c8 <mode_update+0x18>
  doupdate ();
    87be:	e9 dd f3 ff ff       	jmpq   7ba0 <doupdate@plt>
    87c3:	0f 1f 44 00 00       	nopl   0x0(%rax,%rax,1)
{
    87c8:	48 83 ec 08          	sub    $0x8,%rsp
    clear_queue ();
    87cc:	e8 ef 4e 00 00       	callq  d6c0 <clear_queue>
  werase (moon);
    87d1:	48 8b 3d 40 86 01 00 	mov    0x18640(%rip),%rdi        # 20e18 <moon>
    87d8:	e8 e3 ee ff ff       	callq  76c0 <werase@plt>
  wnoutrefresh (moon);
    87dd:	48 8b 3d 34 86 01 00 	mov    0x18634(%rip),%rdi        # 20e18 <moon>
    87e4:	e8 d7 f2 ff ff       	callq  7ac0 <wnoutrefresh@plt>
  if (! current)  return;
    87e9:	48 8b 05 d0 6a 01 00 	mov    0x16ad0(%rip),%rax        # 1f2c0 <current>
    87f0:	48 85 c0             	test   %rax,%rax
    87f3:	74 2b                	je     8820 <mode_update+0x70>
  if (current->enter)  current->enter (mode_seed);
    87f5:	48 8b 00             	mov    (%rax),%rax
    87f8:	48 85 c0             	test   %rax,%rax
    87fb:	74 08                	je     8805 <mode_update+0x55>
    87fd:	8b 3d b5 6a 01 00    	mov    0x16ab5(%rip),%edi        # 1f2b8 <mode_seed>
    8803:	ff d0                	callq  *%rax
  mode_entered = 1;
    8805:	c7 05 ad 6a 01 00 01 	movl   $0x1,0x16aad(%rip)        # 1f2bc <mode_entered>
    880c:	00 00 00 
  if (! mode_entered)  return;
    880f:	e8 0c fe ff ff       	callq  8620 <mode_redraw.part.0>
}
    8814:	48 83 c4 08          	add    $0x8,%rsp
  doupdate ();
    8818:	e9 83 f3 ff ff       	jmpq   7ba0 <doupdate@plt>
    881d:	0f 1f 00             	nopl   (%rax)
  if (! mode_entered)  return;
    8820:	8b 05 96 6a 01 00    	mov    0x16a96(%rip),%eax        # 1f2bc <mode_entered>
    8826:	85 c0                	test   %eax,%eax
    8828:	75 e5                	jne    880f <mode_update+0x5f>
}
    882a:	48 83 c4 08          	add    $0x8,%rsp
  doupdate ();
    882e:	e9 6d f3 ff ff       	jmpq   7ba0 <doupdate@plt>
    8833:	66 66 2e 0f 1f 84 00 	data16 nopw %cs:0x0(%rax,%rax,1)
    883a:	00 00 00 00 
    883e:	66 90                	xchg   %ax,%ax

0000000000008840 <mode_redraw>:
{
    8840:	f3 0f 1e fa          	endbr64 
  if (! mode_entered)  return;
    8844:	8b 05 72 6a 01 00    	mov    0x16a72(%rip),%eax        # 1f2bc <mode_entered>
    884a:	85 c0                	test   %eax,%eax
    884c:	75 02                	jne    8850 <mode_redraw+0x10>
}
    884e:	c3                   	retq   
    884f:	90                   	nop
    8850:	e9 cb fd ff ff       	jmpq   8620 <mode_redraw.part.0>
    8855:	66 66 2e 0f 1f 84 00 	data16 nopw %cs:0x0(%rax,%rax,1)
    885c:	00 00 00 00 

0000000000008860 <mode_keypress>:

int
mode_keypress (game_time t, int meaning)
/* Feed a keypress with meaning MEANING to the current mode.
 * Return 1 if the keypress could be processed, and 0 else.  */
{
    8860:	f3 0f 1e fa          	endbr64 
    8864:	41 54                	push   %r12
  int  i;

  if (meaning == mbk_redraw) {
    8866:	81 ff 00 20 00 00    	cmp    $0x2000,%edi
    886c:	74 52                	je     88c0 <mode_keypress+0x60>
    clear_windows ();
    mode_redraw ();
    return  1;
  }
  for (i=0; i<current->keys.used; ++i) {
    886e:	48 8b 0d 4b 6a 01 00 	mov    0x16a4b(%rip),%rcx        # 1f2c0 <current>
    if (current->keys.data[i].meanings & meaning) {
      current->keypress (t, current->keys.data[i].res);
      return  1;
    }
  }
  return  0;
    8875:	45 31 e4             	xor    %r12d,%r12d
  for (i=0; i<current->keys.used; ++i) {
    8878:	8b 51 28             	mov    0x28(%rcx),%edx
    887b:	85 d2                	test   %edx,%edx
    887d:	7e 36                	jle    88b5 <mode_keypress+0x55>
    887f:	48 8b 41 20          	mov    0x20(%rcx),%rax
    8883:	83 ea 01             	sub    $0x1,%edx
    8886:	48 8d 14 52          	lea    (%rdx,%rdx,2),%rdx
    888a:	48 8d 54 d0 18       	lea    0x18(%rax,%rdx,8),%rdx
    888f:	eb 10                	jmp    88a1 <mode_keypress+0x41>
    8891:	0f 1f 80 00 00 00 00 	nopl   0x0(%rax)
    8898:	48 83 c0 18          	add    $0x18,%rax
    889c:	48 39 d0             	cmp    %rdx,%rax
    889f:	74 14                	je     88b5 <mode_keypress+0x55>
    if (current->keys.data[i].meanings & meaning) {
    88a1:	41 89 fc             	mov    %edi,%r12d
    88a4:	44 23 20             	and    (%rax),%r12d
    88a7:	74 ef                	je     8898 <mode_keypress+0x38>
      current->keypress (t, current->keys.data[i].res);
    88a9:	8b 78 10             	mov    0x10(%rax),%edi
      return  1;
    88ac:	41 bc 01 00 00 00    	mov    $0x1,%r12d
      current->keypress (t, current->keys.data[i].res);
    88b2:	ff 51 30             	callq  *0x30(%rcx)
}
    88b5:	44 89 e0             	mov    %r12d,%eax
    88b8:	41 5c                	pop    %r12
    88ba:	c3                   	retq   
    88bb:	0f 1f 44 00 00       	nopl   0x0(%rax,%rax,1)
    clear_windows ();
    88c0:	e8 fb fc ff ff       	callq  85c0 <clear_windows>
  if (! mode_entered)  return;
    88c5:	8b 05 f1 69 01 00    	mov    0x169f1(%rip),%eax        # 1f2bc <mode_entered>
    return  1;
    88cb:	41 bc 01 00 00 00    	mov    $0x1,%r12d
  if (! mode_entered)  return;
    88d1:	85 c0                	test   %eax,%eax
    88d3:	74 e0                	je     88b5 <mode_keypress+0x55>
    88d5:	e8 46 fd ff ff       	callq  8620 <mode_redraw.part.0>
    88da:	eb d9                	jmp    88b5 <mode_keypress+0x55>
    88dc:	0f 1f 40 00          	nopl   0x0(%rax)

00000000000088e0 <mode_signal>:

void
mode_signal (int signum)
/* Feed signal SIGNUM to the current mode.  */
{
    88e0:	f3 0f 1e fa          	endbr64 
  if (current->signal)  current->signal (signum);
    88e4:	48 8b 05 d5 69 01 00 	mov    0x169d5(%rip),%rax        # 1f2c0 <current>
    88eb:	48 8b 40 18          	mov    0x18(%rax),%rax
    88ef:	48 85 c0             	test   %rax,%rax
    88f2:	74 0c                	je     8900 <mode_signal+0x20>
    88f4:	ff e0                	jmpq   *%rax
    88f6:	66 2e 0f 1f 84 00 00 	nopw   %cs:0x0(%rax,%rax,1)
    88fd:	00 00 00 
}
    8900:	c3                   	retq   
    8901:	66 2e 0f 1f 84 00 00 	nopw   %cs:0x0(%rax,%rax,1)
    8908:	00 00 00 
    890b:	0f 1f 44 00 00       	nopl   0x0(%rax,%rax,1)

0000000000008910 <title_redraw>:
  wnoutrefresh (moon);
}

static void
title_redraw (void)
{
    8910:	f3 0f 1e fa          	endbr64 
    8914:	41 54                	push   %r12
  resize_ground (1);
    8916:	bf 01 00 00 00       	mov    $0x1,%edi
{
    891b:	55                   	push   %rbp
    891c:	53                   	push   %rbx
  resize_ground (1);
    891d:	e8 3e 1b 00 00       	callq  a460 <resize_ground>
  print_ground ();
    8922:	e8 29 1c 00 00       	callq  a550 <print_ground>
  mvwaddstr (moon, 0, 0, "  Moon-Buggy version "
    8927:	48 8b 3d ea 84 01 00 	mov    0x184ea(%rip),%rdi        # 20e18 <moon>
    892e:	31 d2                	xor    %edx,%edx
    8930:	31 f6                	xor    %esi,%esi
    8932:	e8 99 f2 ff ff       	callq  7bd0 <wmove@plt>
    8937:	83 f8 ff             	cmp    $0xffffffff,%eax
    893a:	74 18                	je     8954 <title_redraw+0x44>
    893c:	48 8b 3d d5 84 01 00 	mov    0x184d5(%rip),%rdi        # 20e18 <moon>
    8943:	ba ff ff ff ff       	mov    $0xffffffff,%edx
    8948:	48 8d 35 51 7a 00 00 	lea    0x7a51(%rip),%rsi        # 103a0 <_IO_stdin_used+0x3a0>
    894f:	e8 4c f3 ff ff       	callq  7ca0 <waddnstr@plt>
  waddstr (moon, "  Moon-Buggy comes with ABSOLUTELY NO WARRANTY;"
    8954:	48 8b 3d bd 84 01 00 	mov    0x184bd(%rip),%rdi        # 20e18 <moon>
    895b:	ba ff ff ff ff       	mov    $0xffffffff,%edx
    8960:	48 8d 35 89 7a 00 00 	lea    0x7a89(%rip),%rsi        # 103f0 <_IO_stdin_used+0x3f0>
    8967:	e8 34 f3 ff ff       	callq  7ca0 <waddnstr@plt>
  waddstr (moon,
    896c:	48 8b 3d a5 84 01 00 	mov    0x184a5(%rip),%rdi        # 20e18 <moon>
    8973:	ba ff ff ff ff       	mov    $0xffffffff,%edx
    8978:	48 8d 35 b9 7a 00 00 	lea    0x7ab9(%rip),%rsi        # 10438 <_IO_stdin_used+0x438>
    897f:	e8 1c f3 ff ff       	callq  7ca0 <waddnstr@plt>
  if (5 + title_lines + 5 <= LINES) {
    8984:	8b 05 fa 68 01 00    	mov    0x168fa(%rip),%eax        # 1f284 <LINES@@NCURSES6_TINFO_5.0.19991023>
    898a:	83 f8 16             	cmp    $0x16,%eax
    898d:	0f 8e 89 00 00 00    	jle    8a1c <title_redraw+0x10c>
    int  top = (LINES-title_lines)/3.0 + 0.5;
    8993:	83 e8 0d             	sub    $0xd,%eax
    8996:	66 0f ef c0          	pxor   %xmm0,%xmm0
    899a:	4c 8d 25 7f 66 01 00 	lea    0x1667f(%rip),%r12        # 1f020 <title>
    89a1:	f2 0f 2a c0          	cvtsi2sd %eax,%xmm0
    89a5:	b8 05 00 00 00       	mov    $0x5,%eax
    89aa:	49 8d 6c 24 68       	lea    0x68(%r12),%rbp
    89af:	f2 0f 5e 05 71 7d 00 	divsd  0x7d71(%rip),%xmm0        # 10728 <_IO_stdin_used+0x728>
    89b6:	00 
    89b7:	f2 0f 58 05 71 7d 00 	addsd  0x7d71(%rip),%xmm0        # 10730 <_IO_stdin_used+0x730>
    89be:	00 
    89bf:	f2 0f 2c d8          	cvttsd2si %xmm0,%ebx
    for (i=0; i<title_lines; ++i) {
    89c3:	83 fb 05             	cmp    $0x5,%ebx
    89c6:	0f 4c d8             	cmovl  %eax,%ebx
    89c9:	0f 1f 80 00 00 00 00 	nopl   0x0(%rax)
      mvwaddstr (moon, top+i, (COLS-49)/2, title[i]);
    89d0:	8b 05 aa 68 01 00    	mov    0x168aa(%rip),%eax        # 1f280 <COLS@@NCURSES6_TINFO_5.0.19991023>
    89d6:	48 8b 3d 3b 84 01 00 	mov    0x1843b(%rip),%rdi        # 20e18 <moon>
    89dd:	89 de                	mov    %ebx,%esi
    89df:	83 e8 31             	sub    $0x31,%eax
    89e2:	89 c2                	mov    %eax,%edx
    89e4:	c1 ea 1f             	shr    $0x1f,%edx
    89e7:	01 c2                	add    %eax,%edx
    89e9:	d1 fa                	sar    %edx
    89eb:	e8 e0 f1 ff ff       	callq  7bd0 <wmove@plt>
    89f0:	83 f8 ff             	cmp    $0xffffffff,%eax
    89f3:	74 15                	je     8a0a <title_redraw+0xfa>
    89f5:	49 8b 34 24          	mov    (%r12),%rsi
    89f9:	48 8b 3d 18 84 01 00 	mov    0x18418(%rip),%rdi        # 20e18 <moon>
    8a00:	ba ff ff ff ff       	mov    $0xffffffff,%edx
    8a05:	e8 96 f2 ff ff       	callq  7ca0 <waddnstr@plt>
    for (i=0; i<title_lines; ++i) {
    8a0a:	49 83 c4 08          	add    $0x8,%r12
    8a0e:	83 c3 01             	add    $0x1,%ebx
    8a11:	4c 39 e5             	cmp    %r12,%rbp
    8a14:	75 ba                	jne    89d0 <title_redraw+0xc0>
    8a16:	8b 05 68 68 01 00    	mov    0x16868(%rip),%eax        # 1f284 <LINES@@NCURSES6_TINFO_5.0.19991023>
      || 5 + title_lines + 5 > LINES)  print_buggy ();
    8a1c:	83 e8 17             	sub    $0x17,%eax
    8a1f:	83 f8 01             	cmp    $0x1,%eax
    8a22:	76 05                	jbe    8a29 <title_redraw+0x119>
    8a24:	e8 97 1f 00 00       	callq  a9c0 <print_buggy>
  wnoutrefresh (moon);
    8a29:	48 8b 3d e8 83 01 00 	mov    0x183e8(%rip),%rdi        # 20e18 <moon>
  print_title ();
}
    8a30:	5b                   	pop    %rbx
    8a31:	5d                   	pop    %rbp
    8a32:	41 5c                	pop    %r12
  wnoutrefresh (moon);
    8a34:	e9 87 f0 ff ff       	jmpq   7ac0 <wnoutrefresh@plt>
    8a39:	0f 1f 80 00 00 00 00 	nopl   0x0(%rax)

0000000000008a40 <key_handler>:

static void
key_handler (game_time t, int val)
{
    8a40:	f3 0f 1e fa          	endbr64 
  switch (val) {
    8a44:	83 ff 05             	cmp    $0x5,%edi
    8a47:	77 68                	ja     8ab1 <key_handler+0x71>
    8a49:	48 8d 15 80 7c 00 00 	lea    0x7c80(%rip),%rdx        # 106d0 <_IO_stdin_used+0x6d0>
    8a50:	89 ff                	mov    %edi,%edi
    8a52:	48 63 04 ba          	movslq (%rdx,%rdi,4),%rax
    8a56:	48 01 d0             	add    %rdx,%rax
    8a59:	3e ff e0             	notrack jmpq *%rax
    8a5c:	0f 1f 40 00          	nopl   0x0(%rax)
    break;
  case 4:
    mode_change (pager_mode, 1);
    break;
  case 5:
    mode_change (highscore_mode, 0);
    8a60:	48 8b 3d 09 84 01 00 	mov    0x18409(%rip),%rdi        # 20e70 <highscore_mode>
    8a67:	31 f6                	xor    %esi,%esi
    8a69:	e9 f2 fc ff ff       	jmpq   8760 <mode_change>
    8a6e:	66 90                	xchg   %ax,%ax
    mode_change (game_mode, 0);
    8a70:	48 8b 3d c9 83 01 00 	mov    0x183c9(%rip),%rdi        # 20e40 <game_mode>
    8a77:	31 f6                	xor    %esi,%esi
    8a79:	e9 e2 fc ff ff       	jmpq   8760 <mode_change>
    8a7e:	66 90                	xchg   %ax,%ax
    quit_main_loop ();
    8a80:	e9 cb 4e 00 00       	jmpq   d950 <quit_main_loop>
    8a85:	0f 1f 00             	nopl   (%rax)
    mode_change (pager_mode, 0);
    8a88:	48 8b 3d 99 83 01 00 	mov    0x18399(%rip),%rdi        # 20e28 <pager_mode>
    8a8f:	31 f6                	xor    %esi,%esi
    8a91:	e9 ca fc ff ff       	jmpq   8760 <mode_change>
    8a96:	66 2e 0f 1f 84 00 00 	nopw   %cs:0x0(%rax,%rax,1)
    8a9d:	00 00 00 
    mode_change (pager_mode, 1);
    8aa0:	48 8b 3d 81 83 01 00 	mov    0x18381(%rip),%rdi        # 20e28 <pager_mode>
    8aa7:	be 01 00 00 00       	mov    $0x1,%esi
    8aac:	e9 af fc ff ff       	jmpq   8760 <mode_change>
    break;
  }
}
    8ab1:	c3                   	retq   
    8ab2:	66 66 2e 0f 1f 84 00 	data16 nopw %cs:0x0(%rax,%rax,1)
    8ab9:	00 00 00 00 
    8abd:	0f 1f 00             	nopl   (%rax)

0000000000008ac0 <setup_title_mode>:

void
setup_title_mode (void)
{
    8ac0:	f3 0f 1e fa          	endbr64 
    8ac4:	48 83 ec 08          	sub    $0x8,%rsp
  title_mode = new_mode ();
    8ac8:	e8 93 fb ff ff       	callq  8660 <new_mode>
  title_mode->redraw = title_redraw;
  title_mode->keypress = key_handler;
  mode_add_key (title_mode, mbk_start, "start game", 1);
    8acd:	b9 01 00 00 00       	mov    $0x1,%ecx
    8ad2:	be 00 02 00 00       	mov    $0x200,%esi
    8ad7:	48 8d 15 0a 7c 00 00 	lea    0x7c0a(%rip),%rdx        # 106e8 <_IO_stdin_used+0x6e8>
  title_mode = new_mode ();
    8ade:	48 89 c7             	mov    %rax,%rdi
    8ae1:	48 89 05 38 83 01 00 	mov    %rax,0x18338(%rip)        # 20e20 <title_mode>
  title_mode->redraw = title_redraw;
    8ae8:	48 8d 05 21 fe ff ff 	lea    -0x1df(%rip),%rax        # 8910 <title_redraw>
    8aef:	48 89 47 10          	mov    %rax,0x10(%rdi)
  title_mode->keypress = key_handler;
    8af3:	48 8d 05 46 ff ff ff 	lea    -0xba(%rip),%rax        # 8a40 <key_handler>
    8afa:	48 89 47 30          	mov    %rax,0x30(%rdi)
  mode_add_key (title_mode, mbk_start, "start game", 1);
    8afe:	e8 bd fb ff ff       	callq  86c0 <mode_add_key>
  mode_add_key (title_mode, mbk_end, "quit", 2);
    8b03:	b9 02 00 00 00       	mov    $0x2,%ecx
    8b08:	be 04 00 00 00       	mov    $0x4,%esi
    8b0d:	48 8b 3d 0c 83 01 00 	mov    0x1830c(%rip),%rdi        # 20e20 <title_mode>
    8b14:	48 8d 15 d8 7b 00 00 	lea    0x7bd8(%rip),%rdx        # 106f3 <_IO_stdin_used+0x6f3>
    8b1b:	e8 a0 fb ff ff       	callq  86c0 <mode_add_key>
  mode_add_key (title_mode, mbk_copyright, "show copyright", 3);
    8b20:	b9 03 00 00 00       	mov    $0x3,%ecx
    8b25:	be 01 00 00 00       	mov    $0x1,%esi
    8b2a:	48 8b 3d ef 82 01 00 	mov    0x182ef(%rip),%rdi        # 20e20 <title_mode>
    8b31:	48 8d 15 c0 7b 00 00 	lea    0x7bc0(%rip),%rdx        # 106f8 <_IO_stdin_used+0x6f8>
    8b38:	e8 83 fb ff ff       	callq  86c0 <mode_add_key>
  mode_add_key (title_mode, mbk_warranty, "show warranty", 4);
    8b3d:	b9 04 00 00 00       	mov    $0x4,%ecx
    8b42:	be 00 08 00 00       	mov    $0x800,%esi
    8b47:	48 8b 3d d2 82 01 00 	mov    0x182d2(%rip),%rdi        # 20e20 <title_mode>
    8b4e:	48 8d 15 b2 7b 00 00 	lea    0x7bb2(%rip),%rdx        # 10707 <_IO_stdin_used+0x707>
    8b55:	e8 66 fb ff ff       	callq  86c0 <mode_add_key>
  mode_add_key (title_mode, mbk_scores, "show scores", 5);
    8b5a:	b9 05 00 00 00       	mov    $0x5,%ecx
    8b5f:	be 00 10 00 00       	mov    $0x1000,%esi
    8b64:	48 8b 3d b5 82 01 00 	mov    0x182b5(%rip),%rdi        # 20e20 <title_mode>
    8b6b:	48 8d 15 a3 7b 00 00 	lea    0x7ba3(%rip),%rdx        # 10715 <_IO_stdin_used+0x715>
    8b72:	e8 49 fb ff ff       	callq  86c0 <mode_add_key>
  mode_complete (title_mode);
    8b77:	48 8b 3d a2 82 01 00 	mov    0x182a2(%rip),%rdi        # 20e20 <title_mode>
}
    8b7e:	48 83 c4 08          	add    $0x8,%rsp
  mode_complete (title_mode);
    8b82:	e9 b9 fb ff ff       	jmpq   8740 <mode_complete>
    8b87:	66 0f 1f 84 00 00 00 	nopw   0x0(%rax,%rax,1)
    8b8e:	00 00 

0000000000008b90 <print_page>:
static  int  mb_lines = 25;


static void
print_page (unsigned current_line)
{
    8b90:	41 55                	push   %r13
    8b92:	4c 8d 2d 87 47 01 00 	lea    0x14787(%rip),%r13        # 1d320 <copying_lines>
    8b99:	41 54                	push   %r12
    8b9b:	41 89 fc             	mov    %edi,%r12d
    8b9e:	55                   	push   %rbp
    8b9f:	44 89 e5             	mov    %r12d,%ebp
    8ba2:	53                   	push   %rbx
    8ba3:	31 db                	xor    %ebx,%ebx
    8ba5:	48 83 ec 08          	sub    $0x8,%rsp
  int  i;

  for (i=0; i<mb_lines-3; ++i) {
    8ba9:	83 3d d8 64 01 00 03 	cmpl   $0x3,0x164d8(%rip)        # 1f088 <mb_lines>
    8bb0:	7f 4f                	jg     8c01 <print_page+0x71>
    8bb2:	e9 89 00 00 00       	jmpq   8c40 <print_page+0xb0>
    8bb7:	66 0f 1f 84 00 00 00 	nopw   0x0(%rax,%rax,1)
    8bbe:	00 00 
    if (current_line + i < lines_used) {
      mvwaddstr (moon, i, 2, copying_lines[current_line+i]);
    8bc0:	e8 0b f0 ff ff       	callq  7bd0 <wmove@plt>
    8bc5:	83 f8 ff             	cmp    $0xffffffff,%eax
    8bc8:	74 18                	je     8be2 <print_page+0x52>
    8bca:	89 e8                	mov    %ebp,%eax
    8bcc:	48 8b 3d 45 82 01 00 	mov    0x18245(%rip),%rdi        # 20e18 <moon>
    8bd3:	ba ff ff ff ff       	mov    $0xffffffff,%edx
    8bd8:	49 8b 74 c5 00       	mov    0x0(%r13,%rax,8),%rsi
    8bdd:	e8 be f0 ff ff       	callq  7ca0 <waddnstr@plt>
    } else {
      mvwaddstr (moon, i, 2, "~");
    }
    wclrtoeol (moon);
    8be2:	48 8b 3d 2f 82 01 00 	mov    0x1822f(%rip),%rdi        # 20e18 <moon>
  for (i=0; i<mb_lines-3; ++i) {
    8be9:	83 c3 01             	add    $0x1,%ebx
    8bec:	83 c5 01             	add    $0x1,%ebp
    wclrtoeol (moon);
    8bef:	e8 ec ef ff ff       	callq  7be0 <wclrtoeol@plt>
  for (i=0; i<mb_lines-3; ++i) {
    8bf4:	8b 05 8e 64 01 00    	mov    0x1648e(%rip),%eax        # 1f088 <mb_lines>
    8bfa:	83 e8 03             	sub    $0x3,%eax
    8bfd:	39 d8                	cmp    %ebx,%eax
    8bff:	7e 3f                	jle    8c40 <print_page+0xb0>
    if (current_line + i < lines_used) {
    8c01:	39 2d c5 66 01 00    	cmp    %ebp,0x166c5(%rip)        # 1f2cc <lines_used>
    8c07:	48 8b 3d 0a 82 01 00 	mov    0x1820a(%rip),%rdi        # 20e18 <moon>
      mvwaddstr (moon, i, 2, copying_lines[current_line+i]);
    8c0e:	ba 02 00 00 00       	mov    $0x2,%edx
    8c13:	89 de                	mov    %ebx,%esi
    if (current_line + i < lines_used) {
    8c15:	77 a9                	ja     8bc0 <print_page+0x30>
      mvwaddstr (moon, i, 2, "~");
    8c17:	e8 b4 ef ff ff       	callq  7bd0 <wmove@plt>
    8c1c:	83 f8 ff             	cmp    $0xffffffff,%eax
    8c1f:	74 c1                	je     8be2 <print_page+0x52>
    8c21:	48 8b 3d f0 81 01 00 	mov    0x181f0(%rip),%rdi        # 20e18 <moon>
    8c28:	ba ff ff ff ff       	mov    $0xffffffff,%edx
    8c2d:	48 8d 35 04 7b 00 00 	lea    0x7b04(%rip),%rsi        # 10738 <_IO_stdin_used+0x738>
    8c34:	e8 67 f0 ff ff       	callq  7ca0 <waddnstr@plt>
    8c39:	eb a7                	jmp    8be2 <print_page+0x52>
    8c3b:	0f 1f 44 00 00       	nopl   0x0(%rax,%rax,1)
  }
  wnoutrefresh (moon);
    8c40:	48 8b 3d d1 81 01 00 	mov    0x181d1(%rip),%rdi        # 20e18 <moon>
    8c47:	e8 74 ee ff ff       	callq  7ac0 <wnoutrefresh@plt>

  mvwprintw (status, 0, 0, "=== COPYING %3d%% ===  ",
             lines_used==0 ? 100 :(int)(current_line*100.0/(lines_used-1)+.5));
    8c4c:	8b 05 7a 66 01 00    	mov    0x1667a(%rip),%eax        # 1f2cc <lines_used>
  mvwprintw (status, 0, 0, "=== COPYING %3d%% ===  ",
    8c52:	41 b8 64 00 00 00    	mov    $0x64,%r8d
    8c58:	85 c0                	test   %eax,%eax
    8c5a:	74 2d                	je     8c89 <print_page+0xf9>
             lines_used==0 ? 100 :(int)(current_line*100.0/(lines_used-1)+.5));
    8c5c:	66 0f ef c0          	pxor   %xmm0,%xmm0
    8c60:	83 e8 01             	sub    $0x1,%eax
    8c63:	66 0f ef c9          	pxor   %xmm1,%xmm1
    8c67:	f2 49 0f 2a c4       	cvtsi2sd %r12,%xmm0
    8c6c:	f2 0f 59 05 bc 0a 01 	mulsd  0x10abc(%rip),%xmm0        # 19730 <_IO_stdin_used+0x9730>
    8c73:	00 
    8c74:	f2 0f 2a c8          	cvtsi2sd %eax,%xmm1
    8c78:	f2 0f 5e c1          	divsd  %xmm1,%xmm0
    8c7c:	f2 0f 58 05 ac 7a 00 	addsd  0x7aac(%rip),%xmm0        # 10730 <_IO_stdin_used+0x730>
    8c83:	00 
  mvwprintw (status, 0, 0, "=== COPYING %3d%% ===  ",
    8c84:	f2 44 0f 2c c0       	cvttsd2si %xmm0,%r8d
    8c89:	48 8b 3d 80 81 01 00 	mov    0x18180(%rip),%rdi        # 20e10 <status>
    8c90:	31 d2                	xor    %edx,%edx
    8c92:	31 f6                	xor    %esi,%esi
    8c94:	31 c0                	xor    %eax,%eax
    8c96:	48 8d 0d 9d 7a 00 00 	lea    0x7a9d(%rip),%rcx        # 1073a <_IO_stdin_used+0x73a>
    8c9d:	e8 6e ec ff ff       	callq  7910 <mvwprintw@plt>
  wnoutrefresh (status);
    8ca2:	48 8b 3d 67 81 01 00 	mov    0x18167(%rip),%rdi        # 20e10 <status>
}
    8ca9:	48 83 c4 08          	add    $0x8,%rsp
    8cad:	5b                   	pop    %rbx
    8cae:	5d                   	pop    %rbp
    8caf:	41 5c                	pop    %r12
    8cb1:	41 5d                	pop    %r13
  wnoutrefresh (status);
    8cb3:	e9 08 ee ff ff       	jmpq   7ac0 <wnoutrefresh@plt>
    8cb8:	0f 1f 84 00 00 00 00 	nopl   0x0(%rax,%rax,1)
    8cbf:	00 

0000000000008cc0 <key_handler>:
  print_page (current_line);
}

static void
key_handler (game_time t, int val)
{
    8cc0:	f3 0f 1e fa          	endbr64 
  switch (val) {
    8cc4:	83 ff 07             	cmp    $0x7,%edi
    8cc7:	0f 87 e8 00 00 00    	ja     8db5 <key_handler+0xf5>
    8ccd:	48 8d 15 30 7d 00 00 	lea    0x7d30(%rip),%rdx        # 10a04 <_IO_stdin_used+0xa04>
    8cd4:	89 ff                	mov    %edi,%edi
    8cd6:	48 63 04 ba          	movslq (%rdx,%rdi,4),%rax
    8cda:	48 01 d0             	add    %rdx,%rax
    8cdd:	3e ff e0             	notrack jmpq *%rax
      current_line = 0;
    }
    print_page (current_line);
    break;
  case 5:
    current_line += mb_lines-3;
    8ce0:	8b 05 e2 65 01 00    	mov    0x165e2(%rip),%eax        # 1f2c8 <current_line>
    8ce6:	8b 15 9c 63 01 00    	mov    0x1639c(%rip),%edx        # 1f088 <mb_lines>
    8cec:	8d 7c 02 fd          	lea    -0x3(%rdx,%rax,1),%edi
    if (current_line >= lines_used) {
    8cf0:	8b 05 d6 65 01 00    	mov    0x165d6(%rip),%eax        # 1f2cc <lines_used>
    current_line += mb_lines-3;
    8cf6:	89 3d cc 65 01 00    	mov    %edi,0x165cc(%rip)        # 1f2c8 <current_line>
    if (current_line >= lines_used) {
    8cfc:	39 c7                	cmp    %eax,%edi
    8cfe:	7c 1c                	jl     8d1c <key_handler+0x5c>
      current_line = lines_used-1;
      if (current_line < 0)  current_line = 0;
    8d00:	83 e8 01             	sub    $0x1,%eax
    8d03:	89 c7                	mov    %eax,%edi
    8d05:	79 2c                	jns    8d33 <key_handler+0x73>
    8d07:	66 0f 1f 84 00 00 00 	nopw   0x0(%rax,%rax,1)
    8d0e:	00 00 
    current_line = 0;
    print_page (current_line);
    break;
  case 7:
    current_line = lines_used-1;
    if (current_line < 0)  current_line = 0;
    8d10:	c7 05 ae 65 01 00 00 	movl   $0x0,0x165ae(%rip)        # 1f2c8 <current_line>
    8d17:	00 00 00 
    8d1a:	31 ff                	xor    %edi,%edi
    print_page (current_line);
    8d1c:	e9 6f fe ff ff       	jmpq   8b90 <print_page>
    8d21:	0f 1f 80 00 00 00 00 	nopl   0x0(%rax)
    if (current_line < 0)  current_line = 0;
    8d28:	8b 3d 9e 65 01 00    	mov    0x1659e(%rip),%edi        # 1f2cc <lines_used>
    8d2e:	83 ef 01             	sub    $0x1,%edi
    8d31:	78 dd                	js     8d10 <key_handler+0x50>
    current_line = lines_used-1;
    8d33:	89 3d 8f 65 01 00    	mov    %edi,0x1658f(%rip)        # 1f2c8 <current_line>
    print_page (current_line);
    8d39:	e9 52 fe ff ff       	jmpq   8b90 <print_page>
    8d3e:	66 90                	xchg   %ax,%ax
    mode_change (title_mode, 0);
    8d40:	48 8b 3d d9 80 01 00 	mov    0x180d9(%rip),%rdi        # 20e20 <title_mode>
    8d47:	31 f6                	xor    %esi,%esi
    8d49:	e9 12 fa ff ff       	jmpq   8760 <mode_change>
    8d4e:	66 90                	xchg   %ax,%ax
    if (current_line > 0)  --current_line;
    8d50:	8b 3d 72 65 01 00    	mov    0x16572(%rip),%edi        # 1f2c8 <current_line>
    8d56:	85 ff                	test   %edi,%edi
    8d58:	7e c2                	jle    8d1c <key_handler+0x5c>
    8d5a:	83 ef 01             	sub    $0x1,%edi
    8d5d:	89 3d 65 65 01 00    	mov    %edi,0x16565(%rip)        # 1f2c8 <current_line>
    print_page (current_line);
    8d63:	eb b7                	jmp    8d1c <key_handler+0x5c>
    8d65:	0f 1f 00             	nopl   (%rax)
    if (current_line < lines_used-1)  ++current_line;
    8d68:	8b 05 5e 65 01 00    	mov    0x1655e(%rip),%eax        # 1f2cc <lines_used>
    8d6e:	8b 3d 54 65 01 00    	mov    0x16554(%rip),%edi        # 1f2c8 <current_line>
    8d74:	83 e8 01             	sub    $0x1,%eax
    8d77:	39 f8                	cmp    %edi,%eax
    8d79:	7e a1                	jle    8d1c <key_handler+0x5c>
    8d7b:	83 c7 01             	add    $0x1,%edi
    8d7e:	89 3d 44 65 01 00    	mov    %edi,0x16544(%rip)        # 1f2c8 <current_line>
    print_page (current_line);
    8d84:	eb 96                	jmp    8d1c <key_handler+0x5c>
    8d86:	66 2e 0f 1f 84 00 00 	nopw   %cs:0x0(%rax,%rax,1)
    8d8d:	00 00 00 
    if (current_line > mb_lines-3) {
    8d90:	8b 15 f2 62 01 00    	mov    0x162f2(%rip),%edx        # 1f088 <mb_lines>
    8d96:	8b 05 2c 65 01 00    	mov    0x1652c(%rip),%eax        # 1f2c8 <current_line>
    8d9c:	8d 4a fe             	lea    -0x2(%rdx),%ecx
    8d9f:	39 c1                	cmp    %eax,%ecx
    8da1:	7f 1d                	jg     8dc0 <key_handler+0x100>
      current_line -= mb_lines-3;
    8da3:	83 ea 03             	sub    $0x3,%edx
    8da6:	29 d0                	sub    %edx,%eax
    8da8:	89 c7                	mov    %eax,%edi
    8daa:	89 05 18 65 01 00    	mov    %eax,0x16518(%rip)        # 1f2c8 <current_line>
    print_page (current_line);
    8db0:	e9 db fd ff ff       	jmpq   8b90 <print_page>
    break;
  }
}
    8db5:	c3                   	retq   
    8db6:	66 2e 0f 1f 84 00 00 	nopw   %cs:0x0(%rax,%rax,1)
    8dbd:	00 00 00 
    8dc0:	31 ff                	xor    %edi,%edi
      current_line = 0;
    8dc2:	31 c0                	xor    %eax,%eax
    8dc4:	eb e4                	jmp    8daa <key_handler+0xea>
    8dc6:	66 2e 0f 1f 84 00 00 	nopw   %cs:0x0(%rax,%rax,1)
    8dcd:	00 00 00 

0000000000008dd0 <pager_redraw>:
{
    8dd0:	f3 0f 1e fa          	endbr64 
  mb_lines = LINES;
    8dd4:	8b 05 aa 64 01 00    	mov    0x164aa(%rip),%eax        # 1f284 <LINES@@NCURSES6_TINFO_5.0.19991023>
  print_page (current_line);
    8dda:	8b 3d e8 64 01 00    	mov    0x164e8(%rip),%edi        # 1f2c8 <current_line>
  mb_lines = LINES;
    8de0:	89 05 a2 62 01 00    	mov    %eax,0x162a2(%rip)        # 1f088 <mb_lines>
  print_page (current_line);
    8de6:	e9 a5 fd ff ff       	jmpq   8b90 <print_page>
    8deb:	0f 1f 44 00 00       	nopl   0x0(%rax,%rax,1)

0000000000008df0 <pager_leave>:
  }
}

static void
pager_leave (void)
{
    8df0:	f3 0f 1e fa          	endbr64 
    8df4:	48 83 ec 08          	sub    $0x8,%rsp
  werase (status);
    8df8:	48 8b 3d 11 80 01 00 	mov    0x18011(%rip),%rdi        # 20e10 <status>
    8dff:	e8 bc e8 ff ff       	callq  76c0 <werase@plt>
  wnoutrefresh (status);
    8e04:	48 8b 3d 05 80 01 00 	mov    0x18005(%rip),%rdi        # 20e10 <status>
}
    8e0b:	48 83 c4 08          	add    $0x8,%rsp
  wnoutrefresh (status);
    8e0f:	e9 ac ec ff ff       	jmpq   7ac0 <wnoutrefresh@plt>
    8e14:	66 66 2e 0f 1f 84 00 	data16 nopw %cs:0x0(%rax,%rax,1)
    8e1b:	00 00 00 00 
    8e1f:	90                   	nop

0000000000008e20 <pager_enter>:
{
    8e20:	f3 0f 1e fa          	endbr64 
  lines_used = sizeof (copying_lines) / sizeof (const char *);
    8e24:	c7 05 9e 64 01 00 a2 	movl   $0x2a2,0x1649e(%rip)        # 1f2cc <lines_used>
    8e2b:	02 00 00 
  switch (what) {
    8e2e:	85 ff                	test   %edi,%edi
    8e30:	74 6e                	je     8ea0 <pager_enter+0x80>
    8e32:	83 ff 01             	cmp    $0x1,%edi
    8e35:	75 61                	jne    8e98 <pager_enter+0x78>
{
    8e37:	41 55                	push   %r13
      if (strstr (copying_lines[i], "NO WARRANTY")) {
    8e39:	4c 8d 2d e0 44 01 00 	lea    0x144e0(%rip),%r13        # 1d320 <copying_lines>
{
    8e40:	41 54                	push   %r12
      if (strstr (copying_lines[i], "NO WARRANTY")) {
    8e42:	4c 8d 25 09 79 00 00 	lea    0x7909(%rip),%r12        # 10752 <_IO_stdin_used+0x752>
{
    8e49:	55                   	push   %rbp
    8e4a:	53                   	push   %rbx
    current_line = 0;
    8e4b:	bb 01 00 00 00       	mov    $0x1,%ebx
{
    8e50:	48 83 ec 08          	sub    $0x8,%rsp
    current_line = 0;
    8e54:	c7 05 6a 64 01 00 00 	movl   $0x0,0x1646a(%rip)        # 1f2c8 <current_line>
    8e5b:	00 00 00 
      if (strstr (copying_lines[i], "NO WARRANTY")) {
    8e5e:	66 90                	xchg   %ax,%ax
    for (i=0; i<lines_used; ++i) {
    8e60:	89 dd                	mov    %ebx,%ebp
    8e62:	48 81 fb a2 02 00 00 	cmp    $0x2a2,%rbx
    8e69:	74 1c                	je     8e87 <pager_enter+0x67>
      if (strstr (copying_lines[i], "NO WARRANTY")) {
    8e6b:	49 8b 7c dd 00       	mov    0x0(%r13,%rbx,8),%rdi
    8e70:	4c 89 e6             	mov    %r12,%rsi
    8e73:	48 83 c3 01          	add    $0x1,%rbx
    8e77:	e8 54 ee ff ff       	callq  7cd0 <strstr@plt>
    8e7c:	48 85 c0             	test   %rax,%rax
    8e7f:	74 df                	je     8e60 <pager_enter+0x40>
        current_line = i;
    8e81:	89 2d 41 64 01 00    	mov    %ebp,0x16441(%rip)        # 1f2c8 <current_line>
}
    8e87:	48 83 c4 08          	add    $0x8,%rsp
    8e8b:	5b                   	pop    %rbx
    8e8c:	5d                   	pop    %rbp
    8e8d:	41 5c                	pop    %r12
    8e8f:	41 5d                	pop    %r13
    8e91:	c3                   	retq   
    8e92:	66 0f 1f 44 00 00    	nopw   0x0(%rax,%rax,1)
    8e98:	c3                   	retq   
    8e99:	0f 1f 80 00 00 00 00 	nopl   0x0(%rax)
    current_line = 0;
    8ea0:	c7 05 1e 64 01 00 00 	movl   $0x0,0x1641e(%rip)        # 1f2c8 <current_line>
    8ea7:	00 00 00 
    break;
    8eaa:	c3                   	retq   
    8eab:	0f 1f 44 00 00       	nopl   0x0(%rax,%rax,1)

0000000000008eb0 <setup_pager_mode>:

void
setup_pager_mode (void)
{
    8eb0:	f3 0f 1e fa          	endbr64 
    8eb4:	48 83 ec 08          	sub    $0x8,%rsp
  pager_mode = new_mode ();
    8eb8:	e8 a3 f7 ff ff       	callq  8660 <new_mode>
  pager_mode->enter = pager_enter;
  pager_mode->leave = pager_leave;
  pager_mode->redraw = pager_redraw;
  pager_mode->keypress = key_handler;
  mode_add_key (pager_mode, mbk_end, "quit", 1);
    8ebd:	b9 01 00 00 00       	mov    $0x1,%ecx
    8ec2:	be 04 00 00 00       	mov    $0x4,%esi
    8ec7:	48 8d 15 25 78 00 00 	lea    0x7825(%rip),%rdx        # 106f3 <_IO_stdin_used+0x6f3>
  pager_mode = new_mode ();
    8ece:	48 89 c7             	mov    %rax,%rdi
    8ed1:	48 89 05 50 7f 01 00 	mov    %rax,0x17f50(%rip)        # 20e28 <pager_mode>
  pager_mode->enter = pager_enter;
    8ed8:	48 8d 05 41 ff ff ff 	lea    -0xbf(%rip),%rax        # 8e20 <pager_enter>
    8edf:	48 89 07             	mov    %rax,(%rdi)
  pager_mode->leave = pager_leave;
    8ee2:	48 8d 05 07 ff ff ff 	lea    -0xf9(%rip),%rax        # 8df0 <pager_leave>
    8ee9:	48 89 47 08          	mov    %rax,0x8(%rdi)
  pager_mode->redraw = pager_redraw;
    8eed:	48 8d 05 dc fe ff ff 	lea    -0x124(%rip),%rax        # 8dd0 <pager_redraw>
    8ef4:	48 89 47 10          	mov    %rax,0x10(%rdi)
  pager_mode->keypress = key_handler;
    8ef8:	48 8d 05 c1 fd ff ff 	lea    -0x23f(%rip),%rax        # 8cc0 <key_handler>
    8eff:	48 89 47 30          	mov    %rax,0x30(%rdi)
  mode_add_key (pager_mode, mbk_end, "quit", 1);
    8f03:	e8 b8 f7 ff ff       	callq  86c0 <mode_add_key>
  mode_add_key (pager_mode, mbk_up, "up", 2);
    8f08:	b9 02 00 00 00       	mov    $0x2,%ecx
    8f0d:	be 00 04 00 00       	mov    $0x400,%esi
    8f12:	48 8b 3d 0f 7f 01 00 	mov    0x17f0f(%rip),%rdi        # 20e28 <pager_mode>
    8f19:	48 8d 15 41 78 00 00 	lea    0x7841(%rip),%rdx        # 10761 <_IO_stdin_used+0x761>
    8f20:	e8 9b f7 ff ff       	callq  86c0 <mode_add_key>
  mode_add_key (pager_mode, mbk_down, "down", 3);
    8f25:	b9 03 00 00 00       	mov    $0x3,%ecx
    8f2a:	be 02 00 00 00       	mov    $0x2,%esi
    8f2f:	48 8b 3d f2 7e 01 00 	mov    0x17ef2(%rip),%rdi        # 20e28 <pager_mode>
    8f36:	48 8d 15 2a 78 00 00 	lea    0x782a(%rip),%rdx        # 10767 <_IO_stdin_used+0x767>
    8f3d:	e8 7e f7 ff ff       	callq  86c0 <mode_add_key>
  mode_add_key (pager_mode, mbk_pageup, "pg up", 4);
    8f42:	b9 04 00 00 00       	mov    $0x4,%ecx
    8f47:	be 00 01 00 00       	mov    $0x100,%esi
    8f4c:	48 8b 3d d5 7e 01 00 	mov    0x17ed5(%rip),%rdi        # 20e28 <pager_mode>
    8f53:	48 8d 15 04 78 00 00 	lea    0x7804(%rip),%rdx        # 1075e <_IO_stdin_used+0x75e>
    8f5a:	e8 61 f7 ff ff       	callq  86c0 <mode_add_key>
  mode_add_key (pager_mode, mbk_pagedown, "pg down", 5);
    8f5f:	b9 05 00 00 00       	mov    $0x5,%ecx
    8f64:	be 80 00 00 00       	mov    $0x80,%esi
    8f69:	48 8b 3d b8 7e 01 00 	mov    0x17eb8(%rip),%rdi        # 20e28 <pager_mode>
    8f70:	48 8d 15 ed 77 00 00 	lea    0x77ed(%rip),%rdx        # 10764 <_IO_stdin_used+0x764>
    8f77:	e8 44 f7 ff ff       	callq  86c0 <mode_add_key>
  mode_add_key (pager_mode, mbk_first, "home", 6);
    8f7c:	b9 06 00 00 00       	mov    $0x6,%ecx
    8f81:	be 10 00 00 00       	mov    $0x10,%esi
    8f86:	48 8b 3d 9b 7e 01 00 	mov    0x17e9b(%rip),%rdi        # 20e28 <pager_mode>
    8f8d:	48 8d 15 d8 77 00 00 	lea    0x77d8(%rip),%rdx        # 1076c <_IO_stdin_used+0x76c>
    8f94:	e8 27 f7 ff ff       	callq  86c0 <mode_add_key>
  mode_add_key (pager_mode, mbk_last, "end", 7);
    8f99:	b9 07 00 00 00       	mov    $0x7,%ecx
    8f9e:	be 40 00 00 00       	mov    $0x40,%esi
    8fa3:	48 8b 3d 7e 7e 01 00 	mov    0x17e7e(%rip),%rdi        # 20e28 <pager_mode>
    8faa:	48 8d 15 c0 77 00 00 	lea    0x77c0(%rip),%rdx        # 10771 <_IO_stdin_used+0x771>
    8fb1:	e8 0a f7 ff ff       	callq  86c0 <mode_add_key>
  mode_complete (pager_mode);
    8fb6:	48 8b 3d 6b 7e 01 00 	mov    0x17e6b(%rip),%rdi        # 20e28 <pager_mode>
}
    8fbd:	48 83 c4 08          	add    $0x8,%rsp
  mode_complete (pager_mode);
    8fc1:	e9 7a f7 ff ff       	jmpq   8740 <mode_complete>
    8fc6:	66 2e 0f 1f 84 00 00 	nopw   %cs:0x0(%rax,%rax,1)
    8fcd:	00 00 00 

0000000000008fd0 <game_leave>:
  start_scrolling (1);
}

static void
game_leave (void)
{
    8fd0:	f3 0f 1e fa          	endbr64 
    8fd4:	48 83 ec 08          	sub    $0x8,%rsp
  --lives;
    8fd8:	83 2d f9 62 01 00 01 	subl   $0x1,0x162f9(%rip)        # 1f2d8 <lives>
  level = current_level ();
    8fdf:	e8 4c 14 00 00       	callq  a430 <current_level>
    8fe4:	89 05 f2 62 01 00    	mov    %eax,0x162f2(%rip)        # 1f2dc <level>
  extinguish_laser ();
    8fea:	e8 51 24 00 00       	callq  b440 <extinguish_laser>
  remove_meteors ();
}
    8fef:	48 83 c4 08          	add    $0x8,%rsp
  remove_meteors ();
    8ff3:	e9 28 28 00 00       	jmpq   b820 <remove_meteors>
    8ff8:	0f 1f 84 00 00 00 00 	nopl   0x0(%rax,%rax,1)
    8fff:	00 

0000000000009000 <game_enter>:
{
    9000:	f3 0f 1e fa          	endbr64 
    9004:	53                   	push   %rbx
    9005:	89 fb                	mov    %edi,%ebx
  clock_reset ();
    9007:	e8 44 46 00 00       	callq  d650 <clock_reset>
  if (seed == 0) {
    900c:	85 db                	test   %ebx,%ebx
    900e:	74 40                	je     9050 <game_enter+0x50>
  resize_ground (1);
    9010:	bf 01 00 00 00       	mov    $0x1,%edi
    9015:	e8 46 14 00 00       	callq  a460 <resize_ground>
  level_start (level);
    901a:	8b 3d bc 62 01 00    	mov    0x162bc(%rip),%edi        # 1f2dc <level>
    9020:	e8 9b 11 00 00       	callq  a1c0 <level_start>
  crash_detected = 0;
    9025:	c7 05 01 7e 01 00 00 	movl   $0x0,0x17e01(%rip)        # 20e30 <crash_detected>
    902c:	00 00 00 
  stakes = 0;
    902f:	c7 05 0f 7e 01 00 00 	movl   $0x0,0x17e0f(%rip)        # 20e48 <stakes>
    9036:	00 00 00 
  initialise_buggy ();
    9039:	e8 f2 18 00 00       	callq  a930 <initialise_buggy>
  start_scrolling (1);
    903e:	f2 0f 10 05 62 07 01 	movsd  0x10762(%rip),%xmm0        # 197a8 <_IO_stdin_used+0x97a8>
    9045:	00 
}
    9046:	5b                   	pop    %rbx
  start_scrolling (1);
    9047:	e9 34 17 00 00       	jmpq   a780 <start_scrolling>
    904c:	0f 1f 40 00          	nopl   0x0(%rax)
    werase (status);
    9050:	48 8b 3d b9 7d 01 00 	mov    0x17db9(%rip),%rdi        # 20e10 <status>
    level = 0;
    9057:	c7 05 7b 62 01 00 00 	movl   $0x0,0x1627b(%rip)        # 1f2dc <level>
    905e:	00 00 00 
    score = 0;
    9061:	c7 05 69 62 01 00 00 	movl   $0x0,0x16269(%rip)        # 1f2d4 <score>
    9068:	00 00 00 
    lives = 3;
    906b:	c7 05 63 62 01 00 03 	movl   $0x3,0x16263(%rip)        # 1f2d8 <lives>
    9072:	00 00 00 
    werase (status);
    9075:	e8 46 e6 ff ff       	callq  76c0 <werase@plt>
    wnoutrefresh (status);
    907a:	48 8b 3d 8f 7d 01 00 	mov    0x17d8f(%rip),%rdi        # 20e10 <status>
    9081:	e8 3a ea ff ff       	callq  7ac0 <wnoutrefresh@plt>
    9086:	eb 88                	jmp    9010 <game_enter+0x10>
    9088:	0f 1f 84 00 00 00 00 	nopl   0x0(%rax,%rax,1)
    908f:	00 

0000000000009090 <leave_crash_mode>:
static void
leave_crash_mode (game_time t, void *client_data)
/* This function is a possible callback argument to `add_event'.
 * It switch control back to either `game_mode' or `highscore_mode'.
 * The arguments T and CLIENT_DATA are ignored.  */
{
    9090:	f3 0f 1e fa          	endbr64 
  if (lives > 0) {
    9094:	8b 05 3e 62 01 00    	mov    0x1623e(%rip),%eax        # 1f2d8 <lives>
    909a:	85 c0                	test   %eax,%eax
    909c:	7e 12                	jle    90b0 <leave_crash_mode+0x20>
    mode_change (game_mode, 1);
    909e:	48 8b 3d 9b 7d 01 00 	mov    0x17d9b(%rip),%rdi        # 20e40 <game_mode>
    90a5:	be 01 00 00 00       	mov    $0x1,%esi
    90aa:	e9 b1 f6 ff ff       	jmpq   8760 <mode_change>
    90af:	90                   	nop
{
    90b0:	48 83 ec 08          	sub    $0x8,%rsp
  } else {
    score_set (score, level+1);
    90b4:	8b 05 22 62 01 00    	mov    0x16222(%rip),%eax        # 1f2dc <level>
    90ba:	8b 3d 14 62 01 00    	mov    0x16214(%rip),%edi        # 1f2d4 <score>
    90c0:	8d 70 01             	lea    0x1(%rax),%esi
    90c3:	e8 a8 40 00 00       	callq  d170 <score_set>
    mode_change (highscore_mode, 0);
    90c8:	48 8b 3d a1 7d 01 00 	mov    0x17da1(%rip),%rdi        # 20e70 <highscore_mode>
    90cf:	31 f6                	xor    %esi,%esi
  }
}
    90d1:	48 83 c4 08          	add    $0x8,%rsp
    mode_change (highscore_mode, 0);
    90d5:	e9 86 f6 ff ff       	jmpq   8760 <mode_change>
    90da:	66 0f 1f 44 00 00    	nopw   0x0(%rax,%rax,1)

00000000000090e0 <crash_key_handler>:
  if (lives_flag)  print_lives ();
}

static void
crash_key_handler (game_time t, int val)
{
    90e0:	f3 0f 1e fa          	endbr64 
  if (t < 0.5)  return;
    90e4:	f2 0f 10 0d 44 76 00 	movsd  0x7644(%rip),%xmm1        # 10730 <_IO_stdin_used+0x730>
    90eb:	00 
    90ec:	66 0f 2f c8          	comisd %xmm0,%xmm1
    90f0:	77 1e                	ja     9110 <crash_key_handler+0x30>

  switch (val) {
    90f2:	83 ff 01             	cmp    $0x1,%edi
    90f5:	74 0f                	je     9106 <crash_key_handler+0x26>
    90f7:	83 ff 03             	cmp    $0x3,%edi
    90fa:	75 1c                	jne    9118 <crash_key_handler+0x38>
  case 1:
    leave_crash_mode (0, NULL);
    break;
  case 3:
    lives = 0;
    90fc:	c7 05 d2 61 01 00 00 	movl   $0x0,0x161d2(%rip)        # 1f2d8 <lives>
    9103:	00 00 00 
    leave_crash_mode (0, NULL);
    9106:	31 ff                	xor    %edi,%edi
    9108:	66 0f ef c0          	pxor   %xmm0,%xmm0
    910c:	eb 82                	jmp    9090 <leave_crash_mode>
    910e:	66 90                	xchg   %ax,%ax
    break;
  }
}
    9110:	c3                   	retq   
    9111:	0f 1f 80 00 00 00 00 	nopl   0x0(%rax)
    9118:	c3                   	retq   
    9119:	0f 1f 80 00 00 00 00 	nopl   0x0(%rax)

0000000000009120 <signal_handler>:
{
    9120:	f3 0f 1e fa          	endbr64 
  switch (signum) {
    9124:	83 ff 12             	cmp    $0x12,%edi
    9127:	74 2c                	je     9155 <signal_handler+0x35>
    9129:	83 ff 14             	cmp    $0x14,%edi
    912c:	75 3a                	jne    9168 <signal_handler+0x48>
    if (lives > 1)  lives = 1;
    912e:	83 3d a3 61 01 00 01 	cmpl   $0x1,0x161a3(%rip)        # 1f2d8 <lives>
    9135:	7e 0a                	jle    9141 <signal_handler+0x21>
    9137:	c7 05 97 61 01 00 01 	movl   $0x1,0x16197(%rip)        # 1f2d8 <lives>
    913e:	00 00 00 
    if (! crash_detected)  crash_detected = 1;
    9141:	8b 05 e9 7c 01 00    	mov    0x17ce9(%rip),%eax        # 20e30 <crash_detected>
    9147:	85 c0                	test   %eax,%eax
    9149:	75 0a                	jne    9155 <signal_handler+0x35>
    914b:	c7 05 db 7c 01 00 01 	movl   $0x1,0x17cdb(%rip)        # 20e30 <crash_detected>
    9152:	00 00 00 
    print_message ("GAME OVER (suspended)");
    9155:	48 8d 3d dc 05 01 00 	lea    0x105dc(%rip),%rdi        # 19738 <_IO_stdin_used+0x9738>
    915c:	e9 0f f2 ff ff       	jmpq   8370 <print_message>
    9161:	0f 1f 80 00 00 00 00 	nopl   0x0(%rax)
}
    9168:	c3                   	retq   
    9169:	0f 1f 80 00 00 00 00 	nopl   0x0(%rax)

0000000000009170 <key_handler>:
{
    9170:	f3 0f 1e fa          	endbr64 
  switch (val) {
    9174:	83 ff 02             	cmp    $0x2,%edi
    9177:	74 17                	je     9190 <key_handler+0x20>
{
    9179:	48 83 ec 18          	sub    $0x18,%rsp
  switch (val) {
    917d:	83 ff 03             	cmp    $0x3,%edi
    9180:	74 4e                	je     91d0 <key_handler+0x60>
    9182:	83 ff 01             	cmp    $0x1,%edi
    9185:	74 19                	je     91a0 <key_handler+0x30>
}
    9187:	48 83 c4 18          	add    $0x18,%rsp
    918b:	c3                   	retq   
    918c:	0f 1f 40 00          	nopl   0x0(%rax)
    if (! crash_detected)  fire_laser (t);
    9190:	8b 05 9a 7c 01 00    	mov    0x17c9a(%rip),%eax        # 20e30 <crash_detected>
    9196:	85 c0                	test   %eax,%eax
    9198:	74 66                	je     9200 <key_handler+0x90>
    919a:	c3                   	retq   
    919b:	0f 1f 44 00 00       	nopl   0x0(%rax,%rax,1)
    if (! crash_detected && can_jump())  jump (t);
    91a0:	8b 15 8a 7c 01 00    	mov    0x17c8a(%rip),%edx        # 20e30 <crash_detected>
    91a6:	85 d2                	test   %edx,%edx
    91a8:	75 dd                	jne    9187 <key_handler+0x17>
    91aa:	f2 0f 11 44 24 08    	movsd  %xmm0,0x8(%rsp)
    91b0:	e8 7b 1c 00 00       	callq  ae30 <can_jump>
    91b5:	f2 0f 10 44 24 08    	movsd  0x8(%rsp),%xmm0
    91bb:	85 c0                	test   %eax,%eax
    91bd:	74 c8                	je     9187 <key_handler+0x17>
}
    91bf:	48 83 c4 18          	add    $0x18,%rsp
    if (! crash_detected && can_jump())  jump (t);
    91c3:	e9 f8 1b 00 00       	jmpq   adc0 <jump>
    91c8:	0f 1f 84 00 00 00 00 	nopl   0x0(%rax,%rax,1)
    91cf:	00 
    print_message ("aborted at user's request");
    91d0:	48 8d 3d 77 05 01 00 	lea    0x10577(%rip),%rdi        # 1974e <_IO_stdin_used+0x974e>
    lives = 1;
    91d7:	c7 05 f7 60 01 00 01 	movl   $0x1,0x160f7(%rip)        # 1f2d8 <lives>
    91de:	00 00 00 
    print_message ("aborted at user's request");
    91e1:	e8 8a f1 ff ff       	callq  8370 <print_message>
    mode_change (crash_mode, 0);
    91e6:	48 8b 3d 4b 7c 01 00 	mov    0x17c4b(%rip),%rdi        # 20e38 <crash_mode>
    91ed:	31 f6                	xor    %esi,%esi
}
    91ef:	48 83 c4 18          	add    $0x18,%rsp
    mode_change (crash_mode, 0);
    91f3:	e9 68 f5 ff ff       	jmpq   8760 <mode_change>
    91f8:	0f 1f 84 00 00 00 00 	nopl   0x0(%rax,%rax,1)
    91ff:	00 
    if (! crash_detected)  fire_laser (t);
    9200:	e9 2b 21 00 00       	jmpq   b330 <fire_laser>
    9205:	66 66 2e 0f 1f 84 00 	data16 nopw %cs:0x0(%rax,%rax,1)
    920c:	00 00 00 00 

0000000000009210 <adjust_score.part.0>:
adjust_score (int val)
    9210:	48 83 ec 08          	sub    $0x8,%rsp
  score += val;
    9214:	03 3d ba 60 01 00    	add    0x160ba(%rip),%edi        # 1f2d4 <score>
  mvwprintw (status, 0, car_base-7, "score: %-8d", score);
    921a:	8b 05 d8 7b 01 00    	mov    0x17bd8(%rip),%eax        # 20df8 <car_base>
    9220:	31 f6                	xor    %esi,%esi
  score += val;
    9222:	89 3d ac 60 01 00    	mov    %edi,0x160ac(%rip)        # 1f2d4 <score>
    9228:	41 89 f8             	mov    %edi,%r8d
  mvwprintw (status, 0, car_base-7, "score: %-8d", score);
    922b:	48 8b 3d de 7b 01 00 	mov    0x17bde(%rip),%rdi        # 20e10 <status>
    9232:	48 8d 0d 2f 05 01 00 	lea    0x1052f(%rip),%rcx        # 19768 <_IO_stdin_used+0x9768>
    9239:	8d 50 f9             	lea    -0x7(%rax),%edx
    923c:	31 c0                	xor    %eax,%eax
    923e:	e8 cd e6 ff ff       	callq  7910 <mvwprintw@plt>
  wnoutrefresh (status);
    9243:	48 8b 3d c6 7b 01 00 	mov    0x17bc6(%rip),%rdi        # 20e10 <status>
}
    924a:	48 83 c4 08          	add    $0x8,%rsp
  wnoutrefresh (status);
    924e:	e9 6d e8 ff ff       	jmpq   7ac0 <wnoutrefresh@plt>
    9253:	66 66 2e 0f 1f 84 00 	data16 nopw %cs:0x0(%rax,%rax,1)
    925a:	00 00 00 00 
    925e:	66 90                	xchg   %ax,%ax

0000000000009260 <adjust_score>:
{
    9260:	f3 0f 1e fa          	endbr64 
  if (crash_detected)  return;
    9264:	8b 05 c6 7b 01 00    	mov    0x17bc6(%rip),%eax        # 20e30 <crash_detected>
    926a:	85 c0                	test   %eax,%eax
    926c:	74 02                	je     9270 <adjust_score+0x10>
}
    926e:	c3                   	retq   
    926f:	90                   	nop
    9270:	eb 9e                	jmp    9210 <adjust_score.part.0>
    9272:	66 66 2e 0f 1f 84 00 	data16 nopw %cs:0x0(%rax,%rax,1)
    9279:	00 00 00 00 
    927d:	0f 1f 00             	nopl   (%rax)

0000000000009280 <print_lives>:
{
    9280:	f3 0f 1e fa          	endbr64 
    9284:	48 83 ec 08          	sub    $0x8,%rsp
  mvwprintw (status, 0, car_base-20, "lives: %d", lives);
    9288:	8b 05 6a 7b 01 00    	mov    0x17b6a(%rip),%eax        # 20df8 <car_base>
    928e:	31 f6                	xor    %esi,%esi
    9290:	48 8b 3d 79 7b 01 00 	mov    0x17b79(%rip),%rdi        # 20e10 <status>
    9297:	44 8b 05 3a 60 01 00 	mov    0x1603a(%rip),%r8d        # 1f2d8 <lives>
    929e:	48 8d 0d cf 04 01 00 	lea    0x104cf(%rip),%rcx        # 19774 <_IO_stdin_used+0x9774>
    92a5:	8d 50 ec             	lea    -0x14(%rax),%edx
    92a8:	31 c0                	xor    %eax,%eax
    92aa:	e8 61 e6 ff ff       	callq  7910 <mvwprintw@plt>
  wnoutrefresh (status);
    92af:	48 8b 3d 5a 7b 01 00 	mov    0x17b5a(%rip),%rdi        # 20e10 <status>
}
    92b6:	48 83 c4 08          	add    $0x8,%rsp
  wnoutrefresh (status);
    92ba:	e9 01 e8 ff ff       	jmpq   7ac0 <wnoutrefresh@plt>
    92bf:	90                   	nop

00000000000092c0 <crash_redraw>:
{
    92c0:	f3 0f 1e fa          	endbr64 
    92c4:	48 83 ec 08          	sub    $0x8,%rsp
  resize_ground (0);
    92c8:	31 ff                	xor    %edi,%edi
    92ca:	e8 91 11 00 00       	callq  a460 <resize_ground>
  print_ground ();
    92cf:	e8 7c 12 00 00       	callq  a550 <print_ground>
  print_buggy ();
    92d4:	e8 e7 16 00 00       	callq  a9c0 <print_buggy>
  if (crash_detected)  return;
    92d9:	8b 15 51 7b 01 00    	mov    0x17b51(%rip),%edx        # 20e30 <crash_detected>
    92df:	85 d2                	test   %edx,%edx
    92e1:	75 07                	jne    92ea <crash_redraw+0x2a>
    92e3:	31 ff                	xor    %edi,%edi
    92e5:	e8 26 ff ff ff       	callq  9210 <adjust_score.part.0>
  if (lives_flag)  print_lives ();
    92ea:	8b 05 e0 5f 01 00    	mov    0x15fe0(%rip),%eax        # 1f2d0 <lives_flag>
    92f0:	85 c0                	test   %eax,%eax
    92f2:	75 0c                	jne    9300 <crash_redraw+0x40>
}
    92f4:	48 83 c4 08          	add    $0x8,%rsp
    92f8:	c3                   	retq   
    92f9:	0f 1f 80 00 00 00 00 	nopl   0x0(%rax)
    9300:	48 83 c4 08          	add    $0x8,%rsp
  if (lives_flag)  print_lives ();
    9304:	e9 77 ff ff ff       	jmpq   9280 <print_lives>
    9309:	0f 1f 80 00 00 00 00 	nopl   0x0(%rax)

0000000000009310 <print_lives_h>:
{
    9310:	f3 0f 1e fa          	endbr64 
    9314:	48 83 ec 08          	sub    $0x8,%rsp
  print_lives ();
    9318:	e8 63 ff ff ff       	callq  9280 <print_lives>
  lives_flag = 1;
    931d:	c7 05 a9 5f 01 00 01 	movl   $0x1,0x15fa9(%rip)        # 1f2d0 <lives_flag>
    9324:	00 00 00 
}
    9327:	48 83 c4 08          	add    $0x8,%rsp
    932b:	c3                   	retq   
    932c:	0f 1f 40 00          	nopl   0x0(%rax)

0000000000009330 <game_redraw>:
{
    9330:	f3 0f 1e fa          	endbr64 
    9334:	48 83 ec 08          	sub    $0x8,%rsp
  resize_meteors ();
    9338:	e8 83 28 00 00       	callq  bbc0 <resize_meteors>
  resize_laser ();
    933d:	e8 1e 22 00 00       	callq  b560 <resize_laser>
  resize_ground (0);
    9342:	31 ff                	xor    %edi,%edi
    9344:	e8 17 11 00 00       	callq  a460 <resize_ground>
  print_ground ();
    9349:	e8 02 12 00 00       	callq  a550 <print_ground>
  if (crash_detected)  return;
    934e:	8b 05 dc 7a 01 00    	mov    0x17adc(%rip),%eax        # 20e30 <crash_detected>
    9354:	85 c0                	test   %eax,%eax
    9356:	75 07                	jne    935f <game_redraw+0x2f>
    9358:	31 ff                	xor    %edi,%edi
    935a:	e8 b1 fe ff ff       	callq  9210 <adjust_score.part.0>
  print_lives ();
    935f:	e8 1c ff ff ff       	callq  9280 <print_lives>
}
    9364:	48 83 c4 08          	add    $0x8,%rsp
  print_buggy ();
    9368:	e9 53 16 00 00       	jmpq   a9c0 <print_buggy>
    936d:	0f 1f 00             	nopl   (%rax)

0000000000009370 <print_game_over>:
{
    9370:	f3 0f 1e fa          	endbr64 
    9374:	41 89 f8             	mov    %edi,%r8d
    9377:	48 83 ec 08          	sub    $0x8,%rsp
    937b:	48 8b 3d 96 7a 01 00 	mov    0x17a96(%rip),%rdi        # 20e18 <moon>
  if (blink)  wattron (moon, A_BLINK);
    9382:	45 85 c0             	test   %r8d,%r8d
    9385:	75 59                	jne    93e0 <print_game_over+0x70>
  mvwaddstr (moon, LINES-11, car_base-1, "GAME OVER");
    9387:	8b 05 6b 7a 01 00    	mov    0x17a6b(%rip),%eax        # 20df8 <car_base>
    938d:	8d 50 ff             	lea    -0x1(%rax),%edx
    9390:	8b 05 ee 5e 01 00    	mov    0x15eee(%rip),%eax        # 1f284 <LINES@@NCURSES6_TINFO_5.0.19991023>
    9396:	8d 70 f5             	lea    -0xb(%rax),%esi
    9399:	e8 32 e8 ff ff       	callq  7bd0 <wmove@plt>
    939e:	83 f8 ff             	cmp    $0xffffffff,%eax
    93a1:	75 15                	jne    93b8 <print_game_over+0x48>
  wnoutrefresh (moon);
    93a3:	48 8b 3d 6e 7a 01 00 	mov    0x17a6e(%rip),%rdi        # 20e18 <moon>
}
    93aa:	48 83 c4 08          	add    $0x8,%rsp
  wnoutrefresh (moon);
    93ae:	e9 0d e7 ff ff       	jmpq   7ac0 <wnoutrefresh@plt>
    93b3:	0f 1f 44 00 00       	nopl   0x0(%rax,%rax,1)
  mvwaddstr (moon, LINES-11, car_base-1, "GAME OVER");
    93b8:	48 8b 3d 59 7a 01 00 	mov    0x17a59(%rip),%rdi        # 20e18 <moon>
    93bf:	ba ff ff ff ff       	mov    $0xffffffff,%edx
    93c4:	48 8d 35 b3 03 01 00 	lea    0x103b3(%rip),%rsi        # 1977e <_IO_stdin_used+0x977e>
    93cb:	e8 d0 e8 ff ff       	callq  7ca0 <waddnstr@plt>
  wnoutrefresh (moon);
    93d0:	48 8b 3d 41 7a 01 00 	mov    0x17a41(%rip),%rdi        # 20e18 <moon>
}
    93d7:	48 83 c4 08          	add    $0x8,%rsp
  wnoutrefresh (moon);
    93db:	e9 e0 e6 ff ff       	jmpq   7ac0 <wnoutrefresh@plt>
  if (blink)  wattron (moon, A_BLINK);
    93e0:	31 d2                	xor    %edx,%edx
    93e2:	be 00 00 08 00       	mov    $0x80000,%esi
    93e7:	e8 64 e5 ff ff       	callq  7950 <wattr_on@plt>
  mvwaddstr (moon, LINES-11, car_base-1, "GAME OVER");
    93ec:	8b 05 06 7a 01 00    	mov    0x17a06(%rip),%eax        # 20df8 <car_base>
    93f2:	48 8b 3d 1f 7a 01 00 	mov    0x17a1f(%rip),%rdi        # 20e18 <moon>
    93f9:	8d 50 ff             	lea    -0x1(%rax),%edx
    93fc:	8b 05 82 5e 01 00    	mov    0x15e82(%rip),%eax        # 1f284 <LINES@@NCURSES6_TINFO_5.0.19991023>
    9402:	8d 70 f5             	lea    -0xb(%rax),%esi
    9405:	e8 c6 e7 ff ff       	callq  7bd0 <wmove@plt>
    940a:	83 f8 ff             	cmp    $0xffffffff,%eax
    940d:	75 29                	jne    9438 <print_game_over+0xc8>
  if (blink)  wattroff (moon, A_BLINK);
    940f:	48 8b 3d 02 7a 01 00 	mov    0x17a02(%rip),%rdi        # 20e18 <moon>
    9416:	31 d2                	xor    %edx,%edx
    9418:	be 00 00 08 00       	mov    $0x80000,%esi
    941d:	e8 9e e8 ff ff       	callq  7cc0 <wattr_off@plt>
  wnoutrefresh (moon);
    9422:	48 8b 3d ef 79 01 00 	mov    0x179ef(%rip),%rdi        # 20e18 <moon>
}
    9429:	48 83 c4 08          	add    $0x8,%rsp
  wnoutrefresh (moon);
    942d:	e9 8e e6 ff ff       	jmpq   7ac0 <wnoutrefresh@plt>
    9432:	66 0f 1f 44 00 00    	nopw   0x0(%rax,%rax,1)
  mvwaddstr (moon, LINES-11, car_base-1, "GAME OVER");
    9438:	48 8b 3d d9 79 01 00 	mov    0x179d9(%rip),%rdi        # 20e18 <moon>
    943f:	ba ff ff ff ff       	mov    $0xffffffff,%edx
    9444:	48 8d 35 33 03 01 00 	lea    0x10333(%rip),%rsi        # 1977e <_IO_stdin_used+0x977e>
    944b:	e8 50 e8 ff ff       	callq  7ca0 <waddnstr@plt>
  if (blink)  wattroff (moon, A_BLINK);
    9450:	eb bd                	jmp    940f <print_game_over+0x9f>
    9452:	66 66 2e 0f 1f 84 00 	data16 nopw %cs:0x0(%rax,%rax,1)
    9459:	00 00 00 00 
    945d:	0f 1f 00             	nopl   (%rax)

0000000000009460 <crash_enter>:
{
    9460:	f3 0f 1e fa          	endbr64 
    9464:	48 83 ec 08          	sub    $0x8,%rsp
  clock_reset ();
    9468:	e8 e3 41 00 00       	callq  d650 <clock_reset>
  add_event (1.2, print_lives_h, NULL);
    946d:	f2 0f 10 05 3b 03 01 	movsd  0x1033b(%rip),%xmm0        # 197b0 <_IO_stdin_used+0x97b0>
    9474:	00 
    9475:	31 f6                	xor    %esi,%esi
    9477:	48 8d 3d 92 fe ff ff 	lea    -0x16e(%rip),%rdi        # 9310 <print_lives_h>
  lives_flag = 0;
    947e:	c7 05 48 5e 01 00 00 	movl   $0x0,0x15e48(%rip)        # 1f2d0 <lives_flag>
    9485:	00 00 00 
  add_event (1.2, print_lives_h, NULL);
    9488:	e8 13 43 00 00       	callq  d7a0 <add_event>
  add_event (2.0, leave_crash_mode, NULL);
    948d:	f2 0f 10 05 23 03 01 	movsd  0x10323(%rip),%xmm0        # 197b8 <_IO_stdin_used+0x97b8>
    9494:	00 
    9495:	31 f6                	xor    %esi,%esi
    9497:	48 8d 3d f2 fb ff ff 	lea    -0x40e(%rip),%rdi        # 9090 <leave_crash_mode>
    949e:	e8 fd 42 00 00       	callq  d7a0 <add_event>
  print_buggy ();
    94a3:	e8 18 15 00 00       	callq  a9c0 <print_buggy>
  if (lives <= 0)  print_game_over (1);
    94a8:	8b 05 2a 5e 01 00    	mov    0x15e2a(%rip),%eax        # 1f2d8 <lives>
    94ae:	85 c0                	test   %eax,%eax
    94b0:	7e 0e                	jle    94c0 <crash_enter+0x60>
}
    94b2:	48 83 c4 08          	add    $0x8,%rsp
    94b6:	c3                   	retq   
    94b7:	66 0f 1f 84 00 00 00 	nopw   0x0(%rax,%rax,1)
    94be:	00 00 
  if (lives <= 0)  print_game_over (1);
    94c0:	bf 01 00 00 00       	mov    $0x1,%edi
}
    94c5:	48 83 c4 08          	add    $0x8,%rsp
  if (lives <= 0)  print_game_over (1);
    94c9:	e9 a2 fe ff ff       	jmpq   9370 <print_game_over>
    94ce:	66 90                	xchg   %ax,%ax

00000000000094d0 <setup_game_mode>:

void
setup_game_mode (void)
{
    94d0:	f3 0f 1e fa          	endbr64 
    94d4:	48 83 ec 08          	sub    $0x8,%rsp
  game_mode = new_mode ();
    94d8:	e8 83 f1 ff ff       	callq  8660 <new_mode>
  game_mode->enter = game_enter;
  game_mode->leave = game_leave;
  game_mode->redraw = game_redraw;
  game_mode->keypress = key_handler;
  game_mode->signal = signal_handler;
  mode_add_key (game_mode, mbk_jump, "jump", 1);
    94dd:	b9 01 00 00 00       	mov    $0x1,%ecx
    94e2:	be 20 00 00 00       	mov    $0x20,%esi
    94e7:	48 8d 15 9a 02 01 00 	lea    0x1029a(%rip),%rdx        # 19788 <_IO_stdin_used+0x9788>
  game_mode = new_mode ();
    94ee:	48 89 c7             	mov    %rax,%rdi
    94f1:	48 89 05 48 79 01 00 	mov    %rax,0x17948(%rip)        # 20e40 <game_mode>
  game_mode->enter = game_enter;
    94f8:	48 8d 05 01 fb ff ff 	lea    -0x4ff(%rip),%rax        # 9000 <game_enter>
    94ff:	48 89 07             	mov    %rax,(%rdi)
  game_mode->leave = game_leave;
    9502:	48 8d 05 c7 fa ff ff 	lea    -0x539(%rip),%rax        # 8fd0 <game_leave>
    9509:	48 89 47 08          	mov    %rax,0x8(%rdi)
  game_mode->redraw = game_redraw;
    950d:	48 8d 05 1c fe ff ff 	lea    -0x1e4(%rip),%rax        # 9330 <game_redraw>
    9514:	48 89 47 10          	mov    %rax,0x10(%rdi)
  game_mode->keypress = key_handler;
    9518:	48 8d 05 51 fc ff ff 	lea    -0x3af(%rip),%rax        # 9170 <key_handler>
    951f:	48 89 47 30          	mov    %rax,0x30(%rdi)
  game_mode->signal = signal_handler;
    9523:	48 8d 05 f6 fb ff ff 	lea    -0x40a(%rip),%rax        # 9120 <signal_handler>
    952a:	48 89 47 18          	mov    %rax,0x18(%rdi)
  mode_add_key (game_mode, mbk_jump, "jump", 1);
    952e:	e8 8d f1 ff ff       	callq  86c0 <mode_add_key>
  mode_add_key (game_mode, mbk_fire, "fire", 2);
    9533:	b9 02 00 00 00       	mov    $0x2,%ecx
    9538:	be 08 00 00 00       	mov    $0x8,%esi
    953d:	48 8b 3d fc 78 01 00 	mov    0x178fc(%rip),%rdi        # 20e40 <game_mode>
    9544:	48 8d 15 42 02 01 00 	lea    0x10242(%rip),%rdx        # 1978d <_IO_stdin_used+0x978d>
    954b:	e8 70 f1 ff ff       	callq  86c0 <mode_add_key>
  mode_add_key (game_mode, mbk_end, "abort game", 3);
    9550:	b9 03 00 00 00       	mov    $0x3,%ecx
    9555:	be 04 00 00 00       	mov    $0x4,%esi
    955a:	48 8b 3d df 78 01 00 	mov    0x178df(%rip),%rdi        # 20e40 <game_mode>
    9561:	48 8d 15 2a 02 01 00 	lea    0x1022a(%rip),%rdx        # 19792 <_IO_stdin_used+0x9792>
    9568:	e8 53 f1 ff ff       	callq  86c0 <mode_add_key>
  mode_complete (game_mode);
    956d:	48 8b 3d cc 78 01 00 	mov    0x178cc(%rip),%rdi        # 20e40 <game_mode>
    9574:	e8 c7 f1 ff ff       	callq  8740 <mode_complete>

  crash_mode = new_mode ();
    9579:	e8 e2 f0 ff ff       	callq  8660 <new_mode>
  crash_mode->enter = crash_enter;
  crash_mode->redraw = crash_redraw;
  crash_mode->keypress = crash_key_handler;
  mode_add_key (crash_mode, mbk_start, "continue", 1);
    957e:	b9 01 00 00 00       	mov    $0x1,%ecx
    9583:	be 00 02 00 00       	mov    $0x200,%esi
    9588:	48 8d 15 0e 02 01 00 	lea    0x1020e(%rip),%rdx        # 1979d <_IO_stdin_used+0x979d>
  crash_mode = new_mode ();
    958f:	48 89 c7             	mov    %rax,%rdi
    9592:	48 89 05 9f 78 01 00 	mov    %rax,0x1789f(%rip)        # 20e38 <crash_mode>
  crash_mode->enter = crash_enter;
    9599:	48 8d 05 c0 fe ff ff 	lea    -0x140(%rip),%rax        # 9460 <crash_enter>
    95a0:	48 89 07             	mov    %rax,(%rdi)
  crash_mode->redraw = crash_redraw;
    95a3:	48 8d 05 16 fd ff ff 	lea    -0x2ea(%rip),%rax        # 92c0 <crash_redraw>
    95aa:	48 89 47 10          	mov    %rax,0x10(%rdi)
  crash_mode->keypress = crash_key_handler;
    95ae:	48 8d 05 2b fb ff ff 	lea    -0x4d5(%rip),%rax        # 90e0 <crash_key_handler>
    95b5:	48 89 47 30          	mov    %rax,0x30(%rdi)
  mode_add_key (crash_mode, mbk_start, "continue", 1);
    95b9:	e8 02 f1 ff ff       	callq  86c0 <mode_add_key>
  mode_add_key (crash_mode, mbk_end, "abort game", 3);
    95be:	b9 03 00 00 00       	mov    $0x3,%ecx
    95c3:	be 04 00 00 00       	mov    $0x4,%esi
    95c8:	48 8b 3d 69 78 01 00 	mov    0x17869(%rip),%rdi        # 20e38 <crash_mode>
    95cf:	48 8d 15 bc 01 01 00 	lea    0x101bc(%rip),%rdx        # 19792 <_IO_stdin_used+0x9792>
    95d6:	e8 e5 f0 ff ff       	callq  86c0 <mode_add_key>
  mode_complete (crash_mode);
    95db:	48 8b 3d 56 78 01 00 	mov    0x17856(%rip),%rdi        # 20e38 <crash_mode>
}
    95e2:	48 83 c4 08          	add    $0x8,%rsp
  mode_complete (crash_mode);
    95e6:	e9 55 f1 ff ff       	jmpq   8740 <mode_complete>
    95eb:	0f 1f 44 00 00       	nopl   0x0(%rax,%rax,1)

00000000000095f0 <level0_init>:
} data;


static void
level0_init (void)
{
    95f0:	f3 0f 1e fa          	endbr64 
  hole = 2;
    95f4:	c7 05 0e 5d 01 00 02 	movl   $0x2,0x15d0e(%rip)        # 1f30c <hole>
    95fb:	00 00 00 
  data.l0.state = 0;
    95fe:	c7 05 d8 5c 01 00 00 	movl   $0x0,0x15cd8(%rip)        # 1f2e0 <data>
    9605:	00 00 00 
}
    9608:	c3                   	retq   
    9609:	0f 1f 80 00 00 00 00 	nopl   0x0(%rax)

0000000000009610 <level1_init>:
}


static void
level1_init (void)
{
    9610:	f3 0f 1e fa          	endbr64 
  hole = 5;
    9614:	c7 05 ee 5c 01 00 05 	movl   $0x5,0x15cee(%rip)        # 1f30c <hole>
    961b:	00 00 00 
  data.l1.state = 0;
    961e:	c7 05 b8 5c 01 00 00 	movl   $0x0,0x15cb8(%rip)        # 1f2e0 <data>
    9625:	00 00 00 
}
    9628:	c3                   	retq   
    9629:	0f 1f 80 00 00 00 00 	nopl   0x0(%rax)

0000000000009630 <level2_init>:
}


static void
level2_init (void)
{
    9630:	f3 0f 1e fa          	endbr64 
  hole = 2;
    9634:	c7 05 ce 5c 01 00 02 	movl   $0x2,0x15cce(%rip)        # 1f30c <hole>
    963b:	00 00 00 
  data.l2.state = 0;
    963e:	c7 05 98 5c 01 00 00 	movl   $0x0,0x15c98(%rip)        # 1f2e0 <data>
    9645:	00 00 00 
}
    9648:	c3                   	retq   
    9649:	0f 1f 80 00 00 00 00 	nopl   0x0(%rax)

0000000000009650 <level3_init>:
}


static void
level3_init (void)
{
    9650:	f3 0f 1e fa          	endbr64 
  data.l3.state = -1;
    9654:	c7 05 82 5c 01 00 ff 	movl   $0xffffffff,0x15c82(%rip)        # 1f2e0 <data>
    965b:	ff ff ff 
}
    965e:	c3                   	retq   
    965f:	90                   	nop

0000000000009660 <level_fin_init>:
}


static void
level_fin_init (void)
{
    9660:	f3 0f 1e fa          	endbr64 
    9664:	48 83 ec 08          	sub    $0x8,%rsp
  data.l_fin.state = uniform_rnd (10);
    9668:	bf 0a 00 00 00       	mov    $0xa,%edi
    966d:	e8 8e 5e 00 00       	callq  f500 <uniform_rnd>
  hole = 2;
    9672:	c7 05 90 5c 01 00 02 	movl   $0x2,0x15c90(%rip)        # 1f30c <hole>
    9679:	00 00 00 
  data.l_fin.state = uniform_rnd (10);
    967c:	89 05 5e 5c 01 00    	mov    %eax,0x15c5e(%rip)        # 1f2e0 <data>
  data.l_fin.next_gap = 7;
    9682:	48 c7 05 5b 5c 01 00 	movq   $0x7,0x15c5b(%rip)        # 1f2e8 <data+0x8>
    9689:	07 00 00 00 
  data.l_fin.spare_time = 0;
}
    968d:	48 83 c4 08          	add    $0x8,%rsp
    9691:	c3                   	retq   
    9692:	66 66 2e 0f 1f 84 00 	data16 nopw %cs:0x0(%rax,%rax,1)
    9699:	00 00 00 00 
    969d:	0f 1f 00             	nopl   (%rax)

00000000000096a0 <level6_init>:
{
    96a0:	f3 0f 1e fa          	endbr64 
    96a4:	48 83 ec 08          	sub    $0x8,%rsp
  data.l6.next_gap = 8 + uniform_rnd (10);
    96a8:	bf 0a 00 00 00       	mov    $0xa,%edi
  hole = 5;
    96ad:	c7 05 55 5c 01 00 05 	movl   $0x5,0x15c55(%rip)        # 1f30c <hole>
    96b4:	00 00 00 
  data.l6.next_gap = 8 + uniform_rnd (10);
    96b7:	e8 44 5e 00 00       	callq  f500 <uniform_rnd>
  data.l6.state = 3;
    96bc:	c7 05 1a 5c 01 00 03 	movl   $0x3,0x15c1a(%rip)        # 1f2e0 <data>
    96c3:	00 00 00 
  data.l6.spare_time = 6;
    96c6:	c7 05 1c 5c 01 00 06 	movl   $0x6,0x15c1c(%rip)        # 1f2ec <data+0xc>
    96cd:	00 00 00 
  data.l6.next_gap = 8 + uniform_rnd (10);
    96d0:	83 c0 08             	add    $0x8,%eax
    96d3:	89 05 0f 5c 01 00    	mov    %eax,0x15c0f(%rip)        # 1f2e8 <data+0x8>
}
    96d9:	48 83 c4 08          	add    $0x8,%rsp
    96dd:	c3                   	retq   
    96de:	66 90                	xchg   %ax,%ax

00000000000096e0 <level4_init>:
{
    96e0:	f3 0f 1e fa          	endbr64 
    96e4:	48 83 ec 08          	sub    $0x8,%rsp
  data.l4.next_gap = 8 + uniform_rnd (10);
    96e8:	bf 0a 00 00 00       	mov    $0xa,%edi
  hole = 6;
    96ed:	c7 05 15 5c 01 00 06 	movl   $0x6,0x15c15(%rip)        # 1f30c <hole>
    96f4:	00 00 00 
  data.l4.next_gap = 8 + uniform_rnd (10);
    96f7:	e8 04 5e 00 00       	callq  f500 <uniform_rnd>
  data.l4.state = 3;
    96fc:	c7 05 da 5b 01 00 03 	movl   $0x3,0x15bda(%rip)        # 1f2e0 <data>
    9703:	00 00 00 
  data.l4.next_gap = 8 + uniform_rnd (10);
    9706:	83 c0 08             	add    $0x8,%eax
    9709:	89 05 d9 5b 01 00    	mov    %eax,0x15bd9(%rip)        # 1f2e8 <data+0x8>
}
    970f:	48 83 c4 08          	add    $0x8,%rsp
    9713:	c3                   	retq   
    9714:	66 66 2e 0f 1f 84 00 	data16 nopw %cs:0x0(%rax,%rax,1)
    971b:	00 00 00 00 
    971f:	90                   	nop

0000000000009720 <level2>:
{
    9720:	f3 0f 1e fa          	endbr64 
  if (is_edge) {
    9724:	8b 15 da 5b 01 00    	mov    0x15bda(%rip),%edx        # 1f304 <is_edge>
    972a:	8b 05 b0 5b 01 00    	mov    0x15bb0(%rip),%eax        # 1f2e0 <data>
    9730:	85 d2                	test   %edx,%edx
    9732:	74 74                	je     97a8 <level2+0x88>
{
    9734:	48 83 ec 08          	sub    $0x8,%rsp
    if (data.l2.state == 0) {
    9738:	85 c0                	test   %eax,%eax
    973a:	0f 85 98 00 00 00    	jne    97d8 <level2+0xb8>
      data.l2.gap = 8;
    9740:	c7 05 9a 5b 01 00 08 	movl   $0x8,0x15b9a(%rip)        # 1f2e4 <data+0x4>
    9747:	00 00 00 
      if (ticks >= 310) {
    974a:	8b 05 a0 5b 01 00    	mov    0x15ba0(%rip),%eax        # 1f2f0 <ticks>
    9750:	3d 35 01 00 00       	cmp    $0x135,%eax
    9755:	0f 8f bd 00 00 00    	jg     9818 <level2+0xf8>
        data.l2.state = 2 + uniform_rnd (3 + (ticks < 190));
    975b:	31 ff                	xor    %edi,%edi
    975d:	3d be 00 00 00       	cmp    $0xbe,%eax
    9762:	40 0f 9c c7          	setl   %dil
    9766:	83 c7 03             	add    $0x3,%edi
    9769:	e8 92 5d 00 00       	callq  f500 <uniform_rnd>
    976e:	8b 35 70 5b 01 00    	mov    0x15b70(%rip),%esi        # 1f2e4 <data+0x4>
    9774:	83 c0 02             	add    $0x2,%eax
    9777:	89 05 63 5b 01 00    	mov    %eax,0x15b63(%rip)        # 1f2e0 <data>
    977d:	8d 56 ff             	lea    -0x1(%rsi),%edx
  --data.l2.gap;
    9780:	89 15 5e 5b 01 00    	mov    %edx,0x15b5e(%rip)        # 1f2e4 <data+0x4>
  if (data.l2.gap <= 0)  hole = 2;
    9786:	85 d2                	test   %edx,%edx
    9788:	7f 0a                	jg     9794 <level2+0x74>
    978a:	c7 05 78 5b 01 00 02 	movl   $0x2,0x15b78(%rip)        # 1f30c <hole>
    9791:	00 00 00 
  if (data.l2.state < -6)  ++level;
    9794:	83 f8 fa             	cmp    $0xfffffffa,%eax
    9797:	7d 07                	jge    97a0 <level2+0x80>
    9799:	83 05 5c 5b 01 00 01 	addl   $0x1,0x15b5c(%rip)        # 1f2fc <level>
}
    97a0:	48 83 c4 08          	add    $0x8,%rsp
    97a4:	c3                   	retq   
    97a5:	0f 1f 00             	nopl   (%rax)
    97a8:	8b 0d 36 5b 01 00    	mov    0x15b36(%rip),%ecx        # 1f2e4 <data+0x4>
    97ae:	8d 51 ff             	lea    -0x1(%rcx),%edx
  --data.l2.gap;
    97b1:	89 15 2d 5b 01 00    	mov    %edx,0x15b2d(%rip)        # 1f2e4 <data+0x4>
  if (data.l2.gap <= 0)  hole = 2;
    97b7:	85 d2                	test   %edx,%edx
    97b9:	7f 0a                	jg     97c5 <level2+0xa5>
    97bb:	c7 05 47 5b 01 00 02 	movl   $0x2,0x15b47(%rip)        # 1f30c <hole>
    97c2:	00 00 00 
  if (data.l2.state < -6)  ++level;
    97c5:	83 f8 fa             	cmp    $0xfffffffa,%eax
    97c8:	7d 46                	jge    9810 <level2+0xf0>
    97ca:	83 05 2b 5b 01 00 01 	addl   $0x1,0x15b2b(%rip)        # 1f2fc <level>
    97d1:	c3                   	retq   
    97d2:	66 0f 1f 44 00 00    	nopw   0x0(%rax,%rax,1)
    } else if (data.l2.state > 0) {
    97d8:	7f 56                	jg     9830 <level2+0x110>
      switch (data.l2.state) {
    97da:	83 f8 fe             	cmp    $0xfffffffe,%eax
    97dd:	74 79                	je     9858 <level2+0x138>
    97df:	83 f8 ff             	cmp    $0xffffffff,%eax
    97e2:	0f 84 a8 00 00 00    	je     9890 <level2+0x170>
    97e8:	83 f8 fc             	cmp    $0xfffffffc,%eax
    97eb:	0f 84 7f 00 00 00    	je     9870 <level2+0x150>
  --data.l2.gap;
    97f1:	c7 05 e9 5a 01 00 06 	movl   $0x6,0x15ae9(%rip)        # 1f2e4 <data+0x4>
    97f8:	00 00 00 
      --data.l2.state;
    97fb:	83 e8 01             	sub    $0x1,%eax
    97fe:	89 05 dc 5a 01 00    	mov    %eax,0x15adc(%rip)        # 1f2e0 <data>
  if (data.l2.gap <= 0)  hole = 2;
    9804:	eb 8e                	jmp    9794 <level2+0x74>
    9806:	66 2e 0f 1f 84 00 00 	nopw   %cs:0x0(%rax,%rax,1)
    980d:	00 00 00 
    9810:	c3                   	retq   
    9811:	0f 1f 80 00 00 00 00 	nopl   0x0(%rax)
        data.l2.state = -1;
    9818:	48 b8 ff ff ff ff 07 	movabs $0x7ffffffff,%rax
    981f:	00 00 00 
    9822:	48 89 05 b7 5a 01 00 	mov    %rax,0x15ab7(%rip)        # 1f2e0 <data>
}
    9829:	48 83 c4 08          	add    $0x8,%rsp
    982d:	c3                   	retq   
    982e:	66 90                	xchg   %ax,%ax
      data.l2.gap = 12 + uniform_rnd (6);
    9830:	bf 06 00 00 00       	mov    $0x6,%edi
    9835:	e8 c6 5c 00 00       	callq  f500 <uniform_rnd>
    983a:	41 89 c0             	mov    %eax,%r8d
      --data.l2.state;
    983d:	8b 05 9d 5a 01 00    	mov    0x15a9d(%rip),%eax        # 1f2e0 <data>
    9843:	41 8d 50 0b          	lea    0xb(%r8),%edx
    9847:	83 e8 01             	sub    $0x1,%eax
    984a:	89 05 90 5a 01 00    	mov    %eax,0x15a90(%rip)        # 1f2e0 <data>
    9850:	e9 2b ff ff ff       	jmpq   9780 <level2+0x60>
    9855:	0f 1f 00             	nopl   (%rax)
      --data.l2.state;
    9858:	48 b8 fd ff ff ff 0c 	movabs $0xcfffffffd,%rax
    985f:	00 00 00 
    9862:	48 89 05 77 5a 01 00 	mov    %rax,0x15a77(%rip)        # 1f2e0 <data>
  if (data.l2.gap <= 0)  hole = 2;
    9869:	e9 32 ff ff ff       	jmpq   97a0 <level2+0x80>
    986e:	66 90                	xchg   %ax,%ax
      --data.l2.state;
    9870:	48 b8 fb ff ff ff 0d 	movabs $0xdfffffffb,%rax
    9877:	00 00 00 
    987a:	48 89 05 5f 5a 01 00 	mov    %rax,0x15a5f(%rip)        # 1f2e0 <data>
  if (data.l2.gap <= 0)  hole = 2;
    9881:	e9 1a ff ff ff       	jmpq   97a0 <level2+0x80>
    9886:	66 2e 0f 1f 84 00 00 	nopw   %cs:0x0(%rax,%rax,1)
    988d:	00 00 00 
      --data.l2.state;
    9890:	48 b8 fe ff ff ff 0f 	movabs $0xffffffffe,%rax
    9897:	00 00 00 
    989a:	48 89 05 3f 5a 01 00 	mov    %rax,0x15a3f(%rip)        # 1f2e0 <data>
  if (data.l2.gap <= 0)  hole = 2;
    98a1:	e9 fa fe ff ff       	jmpq   97a0 <level2+0x80>
    98a6:	66 2e 0f 1f 84 00 00 	nopw   %cs:0x0(%rax,%rax,1)
    98ad:	00 00 00 

00000000000098b0 <level1>:
{
    98b0:	f3 0f 1e fa          	endbr64 
  if (is_edge) {
    98b4:	8b 05 4a 5a 01 00    	mov    0x15a4a(%rip),%eax        # 1f304 <is_edge>
{
    98ba:	53                   	push   %rbx
  if (is_edge) {
    98bb:	85 c0                	test   %eax,%eax
    98bd:	75 49                	jne    9908 <level1+0x58>
    98bf:	8b 05 1f 5a 01 00    	mov    0x15a1f(%rip),%eax        # 1f2e4 <data+0x4>
    98c5:	83 e8 01             	sub    $0x1,%eax
  --data.l1.gap;
    98c8:	89 05 16 5a 01 00    	mov    %eax,0x15a16(%rip)        # 1f2e4 <data+0x4>
  if (data.l1.gap <= 0) {
    98ce:	85 c0                	test   %eax,%eax
    98d0:	7f 2f                	jg     9901 <level1+0x51>
    switch (data.l1.state) {
    98d2:	8b 05 08 5a 01 00    	mov    0x15a08(%rip),%eax        # 1f2e0 <data>
    98d8:	83 f8 02             	cmp    $0x2,%eax
    98db:	7f 6b                	jg     9948 <level1+0x98>
    98dd:	85 c0                	test   %eax,%eax
    98df:	0f 8f db 00 00 00    	jg     99c0 <level1+0x110>
      hole = table [uniform_rnd (11)];
    98e5:	bf 0b 00 00 00       	mov    $0xb,%edi
    98ea:	e8 11 5c 00 00       	callq  f500 <uniform_rnd>
    98ef:	48 8d 15 4a ff 00 00 	lea    0xff4a(%rip),%rdx        # 19840 <table.4488>
    98f6:	48 98                	cltq   
    98f8:	8b 04 82             	mov    (%rdx,%rax,4),%eax
    98fb:	89 05 0b 5a 01 00    	mov    %eax,0x15a0b(%rip)        # 1f30c <hole>
}
    9901:	5b                   	pop    %rbx
    9902:	c3                   	retq   
    9903:	0f 1f 44 00 00       	nopl   0x0(%rax,%rax,1)
    if (ticks < 300) {
    9908:	8b 1d e2 59 01 00    	mov    0x159e2(%rip),%ebx        # 1f2f0 <ticks>
    990e:	81 fb 2b 01 00 00    	cmp    $0x12b,%ebx
    9914:	7e 62                	jle    9978 <level1+0xc8>
      switch (data.l1.state) {
    9916:	8b 05 c4 59 01 00    	mov    0x159c4(%rip),%eax        # 1f2e0 <data>
    991c:	83 f8 01             	cmp    $0x1,%eax
    991f:	0f 84 ab 00 00 00    	je     99d0 <level1+0x120>
    9925:	83 f8 02             	cmp    $0x2,%eax
    9928:	74 36                	je     9960 <level1+0xb0>
      if (data.l1.state > 2) {
    992a:	0f 8e b3 00 00 00    	jle    99e3 <level1+0x133>
        ++level;
    9930:	83 05 c5 59 01 00 01 	addl   $0x1,0x159c5(%rip)        # 1f2fc <level>
}
    9937:	5b                   	pop    %rbx
  --data.l1.gap;
    9938:	c7 05 a2 59 01 00 0b 	movl   $0xb,0x159a2(%rip)        # 1f2e4 <data+0x4>
    993f:	00 00 00 
}
    9942:	c3                   	retq   
    9943:	0f 1f 44 00 00       	nopl   0x0(%rax,%rax,1)
    switch (data.l1.state) {
    9948:	83 f8 03             	cmp    $0x3,%eax
    994b:	75 98                	jne    98e5 <level1+0x35>
      hole = 5;
    994d:	c7 05 b5 59 01 00 05 	movl   $0x5,0x159b5(%rip)        # 1f30c <hole>
    9954:	00 00 00 
}
    9957:	5b                   	pop    %rbx
    9958:	c3                   	retq   
    9959:	0f 1f 80 00 00 00 00 	nopl   0x0(%rax)
        ++data.l1.state;
    9960:	48 b8 03 00 00 00 07 	movabs $0x700000003,%rax
    9967:	00 00 00 
}
    996a:	5b                   	pop    %rbx
        ++data.l1.state;
    996b:	48 89 05 6e 59 01 00 	mov    %rax,0x1596e(%rip)        # 1f2e0 <data>
}
    9972:	c3                   	retq   
    9973:	0f 1f 44 00 00       	nopl   0x0(%rax,%rax,1)
      data.l1.gap = 14.5 - ticks*4.0/300 + uniform_rnd (3);
    9978:	bf 03 00 00 00       	mov    $0x3,%edi
    997d:	e8 7e 5b 00 00       	callq  f500 <uniform_rnd>
    9982:	f2 0f 10 05 e6 ff 00 	movsd  0xffe6(%rip),%xmm0        # 19970 <__PRETTY_FUNCTION__.4560+0x100>
    9989:	00 
    998a:	66 0f ef c9          	pxor   %xmm1,%xmm1
    998e:	f2 0f 2a cb          	cvtsi2sd %ebx,%xmm1
    9992:	f2 0f 59 0d c6 ff 00 	mulsd  0xffc6(%rip),%xmm1        # 19960 <__PRETTY_FUNCTION__.4560+0xf0>
    9999:	00 
    999a:	f2 0f 5e 0d c6 ff 00 	divsd  0xffc6(%rip),%xmm1        # 19968 <__PRETTY_FUNCTION__.4560+0xf8>
    99a1:	00 
    99a2:	f2 0f 5c c1          	subsd  %xmm1,%xmm0
    99a6:	66 0f ef c9          	pxor   %xmm1,%xmm1
    99aa:	f2 0f 2a c8          	cvtsi2sd %eax,%xmm1
    99ae:	f2 0f 58 c1          	addsd  %xmm1,%xmm0
    99b2:	f2 0f 2c c0          	cvttsd2si %xmm0,%eax
    99b6:	83 e8 01             	sub    $0x1,%eax
    99b9:	e9 0a ff ff ff       	jmpq   98c8 <level1+0x18>
    99be:	66 90                	xchg   %ax,%ax
      hole = 4;
    99c0:	c7 05 42 59 01 00 04 	movl   $0x4,0x15942(%rip)        # 1f30c <hole>
    99c7:	00 00 00 
}
    99ca:	5b                   	pop    %rbx
    99cb:	c3                   	retq   
    99cc:	0f 1f 40 00          	nopl   0x0(%rax)
        ++data.l1.state;
    99d0:	48 b8 02 00 00 00 06 	movabs $0x600000002,%rax
    99d7:	00 00 00 
}
    99da:	5b                   	pop    %rbx
        ++data.l1.state;
    99db:	48 89 05 fe 58 01 00 	mov    %rax,0x158fe(%rip)        # 1f2e0 <data>
}
    99e2:	c3                   	retq   
  --data.l1.gap;
    99e3:	c7 05 f7 58 01 00 0b 	movl   $0xb,0x158f7(%rip)        # 1f2e4 <data+0x4>
    99ea:	00 00 00 
        ++data.l1.state;
    99ed:	83 c0 01             	add    $0x1,%eax
}
    99f0:	5b                   	pop    %rbx
        ++data.l1.state;
    99f1:	89 05 e9 58 01 00    	mov    %eax,0x158e9(%rip)        # 1f2e0 <data>
}
    99f7:	c3                   	retq   
    99f8:	0f 1f 84 00 00 00 00 	nopl   0x0(%rax,%rax,1)
    99ff:	00 

0000000000009a00 <level0>:
{
    9a00:	f3 0f 1e fa          	endbr64 
  if (is_edge) {
    9a04:	8b 05 fa 58 01 00    	mov    0x158fa(%rip),%eax        # 1f304 <is_edge>
    9a0a:	85 c0                	test   %eax,%eax
    9a0c:	75 2a                	jne    9a38 <level0+0x38>
    9a0e:	8b 05 d0 58 01 00    	mov    0x158d0(%rip),%eax        # 1f2e4 <data+0x4>
    9a14:	83 e8 01             	sub    $0x1,%eax
  --data.l0.gap;
    9a17:	89 05 c7 58 01 00    	mov    %eax,0x158c7(%rip)        # 1f2e4 <data+0x4>
  if (data.l0.gap <= 0)  hole = 2;
    9a1d:	85 c0                	test   %eax,%eax
    9a1f:	7f 0f                	jg     9a30 <level0+0x30>
    9a21:	c7 05 e1 58 01 00 02 	movl   $0x2,0x158e1(%rip)        # 1f30c <hole>
    9a28:	00 00 00 
    9a2b:	c3                   	retq   
    9a2c:	0f 1f 40 00          	nopl   0x0(%rax)
    9a30:	c3                   	retq   
    9a31:	0f 1f 80 00 00 00 00 	nopl   0x0(%rax)
    if (ticks < 345) {
    9a38:	8b 05 b2 58 01 00    	mov    0x158b2(%rip),%eax        # 1f2f0 <ticks>
    9a3e:	3d 58 01 00 00       	cmp    $0x158,%eax
    9a43:	7e 3b                	jle    9a80 <level0+0x80>
      switch (data.l0.state) {
    9a45:	8b 15 95 58 01 00    	mov    0x15895(%rip),%edx        # 1f2e0 <data>
    9a4b:	83 fa 01             	cmp    $0x1,%edx
    9a4e:	0f 84 dc 00 00 00    	je     9b30 <level0+0x130>
    9a54:	83 fa 02             	cmp    $0x2,%edx
    9a57:	0f 84 bb 00 00 00    	je     9b18 <level0+0x118>
    9a5d:	85 d2                	test   %edx,%edx
    9a5f:	0f 84 9b 00 00 00    	je     9b00 <level0+0x100>
        ++level;
    9a65:	8b 05 79 58 01 00    	mov    0x15879(%rip),%eax        # 1f2e4 <data+0x4>
      ++data.l0.state;
    9a6b:	83 c2 01             	add    $0x1,%edx
        ++level;
    9a6e:	83 05 87 58 01 00 01 	addl   $0x1,0x15887(%rip)        # 1f2fc <level>
      ++data.l0.state;
    9a75:	89 15 65 58 01 00    	mov    %edx,0x15865(%rip)        # 1f2e0 <data>
    9a7b:	83 e8 01             	sub    $0x1,%eax
    9a7e:	eb 97                	jmp    9a17 <level0+0x17>
      data.l0.gap = 14.5 - ticks*4.0/345 + uniform_rnd (4.5 + ticks*4.0/345);
    9a80:	66 0f ef c9          	pxor   %xmm1,%xmm1
{
    9a84:	48 83 ec 18          	sub    $0x18,%rsp
      data.l0.gap = 14.5 - ticks*4.0/345 + uniform_rnd (4.5 + ticks*4.0/345);
    9a88:	f2 0f 2a c8          	cvtsi2sd %eax,%xmm1
    9a8c:	f2 0f 59 0d cc fe 00 	mulsd  0xfecc(%rip),%xmm1        # 19960 <__PRETTY_FUNCTION__.4560+0xf0>
    9a93:	00 
    9a94:	f2 0f 5e 0d dc fe 00 	divsd  0xfedc(%rip),%xmm1        # 19978 <__PRETTY_FUNCTION__.4560+0x108>
    9a9b:	00 
    9a9c:	66 0f 28 c1          	movapd %xmm1,%xmm0
    9aa0:	f2 0f 58 05 d8 fe 00 	addsd  0xfed8(%rip),%xmm0        # 19980 <__PRETTY_FUNCTION__.4560+0x110>
    9aa7:	00 
    9aa8:	f2 0f 11 4c 24 08    	movsd  %xmm1,0x8(%rsp)
    9aae:	f2 48 0f 2c f8       	cvttsd2si %xmm0,%rdi
    9ab3:	e8 48 5a 00 00       	callq  f500 <uniform_rnd>
    9ab8:	f2 0f 10 4c 24 08    	movsd  0x8(%rsp),%xmm1
    9abe:	f2 0f 10 05 aa fe 00 	movsd  0xfeaa(%rip),%xmm0        # 19970 <__PRETTY_FUNCTION__.4560+0x100>
    9ac5:	00 
    9ac6:	f2 0f 5c c1          	subsd  %xmm1,%xmm0
    9aca:	66 0f ef c9          	pxor   %xmm1,%xmm1
    9ace:	f2 0f 2a c8          	cvtsi2sd %eax,%xmm1
    9ad2:	f2 0f 58 c1          	addsd  %xmm1,%xmm0
    9ad6:	f2 0f 2c c0          	cvttsd2si %xmm0,%eax
    9ada:	83 e8 01             	sub    $0x1,%eax
  --data.l0.gap;
    9add:	89 05 01 58 01 00    	mov    %eax,0x15801(%rip)        # 1f2e4 <data+0x4>
  if (data.l0.gap <= 0)  hole = 2;
    9ae3:	85 c0                	test   %eax,%eax
    9ae5:	7f 0a                	jg     9af1 <level0+0xf1>
    9ae7:	c7 05 1b 58 01 00 02 	movl   $0x2,0x1581b(%rip)        # 1f30c <hole>
    9aee:	00 00 00 
}
    9af1:	48 83 c4 18          	add    $0x18,%rsp
    9af5:	c3                   	retq   
    9af6:	66 2e 0f 1f 84 00 00 	nopw   %cs:0x0(%rax,%rax,1)
    9afd:	00 00 00 
      ++data.l0.state;
    9b00:	48 b8 01 00 00 00 0c 	movabs $0xc00000001,%rax
    9b07:	00 00 00 
    9b0a:	48 89 05 cf 57 01 00 	mov    %rax,0x157cf(%rip)        # 1f2e0 <data>
  if (data.l0.gap <= 0)  hole = 2;
    9b11:	c3                   	retq   
    9b12:	66 0f 1f 44 00 00    	nopw   0x0(%rax,%rax,1)
      ++data.l0.state;
    9b18:	48 b8 03 00 00 00 0a 	movabs $0xa00000003,%rax
    9b1f:	00 00 00 
    9b22:	48 89 05 b7 57 01 00 	mov    %rax,0x157b7(%rip)        # 1f2e0 <data>
  if (data.l0.gap <= 0)  hole = 2;
    9b29:	c3                   	retq   
    9b2a:	66 0f 1f 44 00 00    	nopw   0x0(%rax,%rax,1)
      ++data.l0.state;
    9b30:	48 b8 02 00 00 00 09 	movabs $0x900000002,%rax
    9b37:	00 00 00 
    9b3a:	48 89 05 9f 57 01 00 	mov    %rax,0x1579f(%rip)        # 1f2e0 <data>
  if (data.l0.gap <= 0)  hole = 2;
    9b41:	c3                   	retq   
    9b42:	66 66 2e 0f 1f 84 00 	data16 nopw %cs:0x0(%rax,%rax,1)
    9b49:	00 00 00 00 
    9b4d:	0f 1f 00             	nopl   (%rax)

0000000000009b50 <level_fin>:

static void
level_fin (double t)
{
    9b50:	f3 0f 1e fa          	endbr64 
    9b54:	48 83 ec 08          	sub    $0x8,%rsp
  if (is_edge) {
    9b58:	8b 15 a6 57 01 00    	mov    0x157a6(%rip),%edx        # 1f304 <is_edge>
    9b5e:	85 d2                	test   %edx,%edx
    9b60:	74 39                	je     9b9b <level_fin+0x4b>
    data.l_fin.gap = data.l_fin.next_gap;
    9b62:	8b 05 80 57 01 00    	mov    0x15780(%rip),%eax        # 1f2e8 <data+0x8>
    if (data.l_fin.state == 0) {
    9b68:	8b 15 72 57 01 00    	mov    0x15772(%rip),%edx        # 1f2e0 <data>
    data.l_fin.gap = data.l_fin.next_gap;
    9b6e:	89 05 70 57 01 00    	mov    %eax,0x15770(%rip)        # 1f2e4 <data+0x4>
    if (data.l_fin.state == 0) {
    9b74:	85 d2                	test   %edx,%edx
    9b76:	74 10                	je     9b88 <level_fin+0x38>
      data.l_fin.state = 3 + uniform_rnd (6);
    } else {
      --data.l_fin.state;
    9b78:	83 ea 01             	sub    $0x1,%edx
    9b7b:	89 15 5f 57 01 00    	mov    %edx,0x1575f(%rip)        # 1f2e0 <data>
    9b81:	eb 1e                	jmp    9ba1 <level_fin+0x51>
    9b83:	0f 1f 44 00 00       	nopl   0x0(%rax,%rax,1)
      data.l_fin.state = 3 + uniform_rnd (6);
    9b88:	bf 06 00 00 00       	mov    $0x6,%edi
    9b8d:	e8 6e 59 00 00       	callq  f500 <uniform_rnd>
    9b92:	83 c0 03             	add    $0x3,%eax
    9b95:	89 05 45 57 01 00    	mov    %eax,0x15745(%rip)        # 1f2e0 <data>
    9b9b:	8b 05 43 57 01 00    	mov    0x15743(%rip),%eax        # 1f2e4 <data+0x4>
    }
  }
  --data.l_fin.gap;
  ++data.l_fin.spare_time;
    9ba1:	8b 0d 45 57 01 00    	mov    0x15745(%rip),%ecx        # 1f2ec <data+0xc>
  --data.l_fin.gap;
    9ba7:	83 e8 01             	sub    $0x1,%eax
    9baa:	89 05 34 57 01 00    	mov    %eax,0x15734(%rip)        # 1f2e4 <data+0x4>
  ++data.l_fin.spare_time;
    9bb0:	8d 79 01             	lea    0x1(%rcx),%edi
    9bb3:	89 3d 33 57 01 00    	mov    %edi,0x15733(%rip)        # 1f2ec <data+0xc>
  if (data.l_fin.gap <= 0) {
    9bb9:	85 c0                	test   %eax,%eax
    9bbb:	7e 13                	jle    9bd0 <level_fin+0x80>
      }
    }
    data.l_fin.spare_time -= 11;
  }

  if (data.l_fin.spare_time >= 5) {
    9bbd:	83 ff 04             	cmp    $0x4,%edi
    9bc0:	7f 58                	jg     9c1a <level_fin+0xca>
    if (uniform_rnd (data.l_fin.spare_time) > 2) {
      place_meteor ();
      data.l_fin.spare_time -= 5;
    }
  }
}
    9bc2:	48 83 c4 08          	add    $0x8,%rsp
    9bc6:	c3                   	retq   
    9bc7:	66 0f 1f 84 00 00 00 	nopw   0x0(%rax,%rax,1)
    9bce:	00 00 
    if (data.l_fin.state) {
    9bd0:	8b 05 0a 57 01 00    	mov    0x1570a(%rip),%eax        # 1f2e0 <data>
      hole = 2 + uniform_rnd (3);
    9bd6:	bf 03 00 00 00       	mov    $0x3,%edi
    if (data.l_fin.state) {
    9bdb:	85 c0                	test   %eax,%eax
    9bdd:	74 59                	je     9c38 <level_fin+0xe8>
      hole = 2 + uniform_rnd (3);
    9bdf:	e8 1c 59 00 00       	callq  f500 <uniform_rnd>
      data.l_fin.next_gap = 15 + uniform_rnd (6) - hole;
    9be4:	bf 06 00 00 00       	mov    $0x6,%edi
      hole = 2 + uniform_rnd (3);
    9be9:	83 c0 02             	add    $0x2,%eax
    9bec:	89 05 1a 57 01 00    	mov    %eax,0x1571a(%rip)        # 1f30c <hole>
      data.l_fin.next_gap = 15 + uniform_rnd (6) - hole;
    9bf2:	e8 09 59 00 00       	callq  f500 <uniform_rnd>
    9bf7:	83 c0 0f             	add    $0xf,%eax
    9bfa:	2b 05 0c 57 01 00    	sub    0x1570c(%rip),%eax        # 1f30c <hole>
    9c00:	89 05 e2 56 01 00    	mov    %eax,0x156e2(%rip)        # 1f2e8 <data+0x8>
    data.l_fin.spare_time -= 11;
    9c06:	8b 05 e0 56 01 00    	mov    0x156e0(%rip),%eax        # 1f2ec <data+0xc>
    9c0c:	8d 78 f5             	lea    -0xb(%rax),%edi
    9c0f:	89 3d d7 56 01 00    	mov    %edi,0x156d7(%rip)        # 1f2ec <data+0xc>
  if (data.l_fin.spare_time >= 5) {
    9c15:	83 ff 04             	cmp    $0x4,%edi
    9c18:	7e a8                	jle    9bc2 <level_fin+0x72>
    if (uniform_rnd (data.l_fin.spare_time) > 2) {
    9c1a:	e8 e1 58 00 00       	callq  f500 <uniform_rnd>
    9c1f:	83 f8 02             	cmp    $0x2,%eax
    9c22:	7e 9e                	jle    9bc2 <level_fin+0x72>
      place_meteor ();
    9c24:	e8 37 1b 00 00       	callq  b760 <place_meteor>
      data.l_fin.spare_time -= 5;
    9c29:	83 2d bc 56 01 00 05 	subl   $0x5,0x156bc(%rip)        # 1f2ec <data+0xc>
}
    9c30:	48 83 c4 08          	add    $0x8,%rsp
    9c34:	c3                   	retq   
    9c35:	0f 1f 00             	nopl   (%rax)
      if (uniform_rnd (3)) {
    9c38:	e8 c3 58 00 00       	callq  f500 <uniform_rnd>
    9c3d:	85 c0                	test   %eax,%eax
    9c3f:	74 2f                	je     9c70 <level_fin+0x120>
        hole = 5 + uniform_rnd (2);
    9c41:	bf 02 00 00 00       	mov    $0x2,%edi
    9c46:	e8 b5 58 00 00       	callq  f500 <uniform_rnd>
        data.l_fin.next_gap = 9 + uniform_rnd (10);
    9c4b:	bf 0a 00 00 00       	mov    $0xa,%edi
        hole = 5 + uniform_rnd (2);
    9c50:	83 c0 05             	add    $0x5,%eax
    9c53:	89 05 b3 56 01 00    	mov    %eax,0x156b3(%rip)        # 1f30c <hole>
        data.l_fin.next_gap = 9 + uniform_rnd (10);
    9c59:	e8 a2 58 00 00       	callq  f500 <uniform_rnd>
    9c5e:	83 c0 09             	add    $0x9,%eax
    9c61:	89 05 81 56 01 00    	mov    %eax,0x15681(%rip)        # 1f2e8 <data+0x8>
    9c67:	eb 9d                	jmp    9c06 <level_fin+0xb6>
    9c69:	0f 1f 80 00 00 00 00 	nopl   0x0(%rax)
        hole = 2 + uniform_rnd (3);
    9c70:	bf 03 00 00 00       	mov    $0x3,%edi
    9c75:	e8 86 58 00 00       	callq  f500 <uniform_rnd>
        data.l_fin.next_gap = 9;
    9c7a:	c7 05 64 56 01 00 09 	movl   $0x9,0x15664(%rip)        # 1f2e8 <data+0x8>
    9c81:	00 00 00 
        hole = 2 + uniform_rnd (3);
    9c84:	83 c0 02             	add    $0x2,%eax
    9c87:	89 05 7f 56 01 00    	mov    %eax,0x1567f(%rip)        # 1f30c <hole>
        data.l_fin.next_gap = 9;
    9c8d:	e9 74 ff ff ff       	jmpq   9c06 <level_fin+0xb6>
    9c92:	66 66 2e 0f 1f 84 00 	data16 nopw %cs:0x0(%rax,%rax,1)
    9c99:	00 00 00 00 
    9c9d:	0f 1f 00             	nopl   (%rax)

0000000000009ca0 <level6>:
{
    9ca0:	f3 0f 1e fa          	endbr64 
  if (is_edge) {
    9ca4:	8b 15 5a 56 01 00    	mov    0x1565a(%rip),%edx        # 1f304 <is_edge>
{
    9caa:	53                   	push   %rbx
  if (is_edge) {
    9cab:	85 d2                	test   %edx,%edx
    9cad:	74 51                	je     9d00 <level6+0x60>
    data.l6.gap = data.l6.next_gap;
    9caf:	8b 05 33 56 01 00    	mov    0x15633(%rip),%eax        # 1f2e8 <data+0x8>
    if (data.l6.state == 0) {
    9cb5:	8b 15 25 56 01 00    	mov    0x15625(%rip),%edx        # 1f2e0 <data>
    data.l6.gap = data.l6.next_gap;
    9cbb:	89 05 23 56 01 00    	mov    %eax,0x15623(%rip)        # 1f2e4 <data+0x4>
    if (data.l6.state == 0) {
    9cc1:	85 d2                	test   %edx,%edx
    9cc3:	74 0b                	je     9cd0 <level6+0x30>
      --data.l6.state;
    9cc5:	83 ea 01             	sub    $0x1,%edx
    9cc8:	89 15 12 56 01 00    	mov    %edx,0x15612(%rip)        # 1f2e0 <data>
    9cce:	eb 36                	jmp    9d06 <level6+0x66>
      data.l6.state = 3 + uniform_rnd (5);
    9cd0:	bf 05 00 00 00       	mov    $0x5,%edi
    9cd5:	e8 26 58 00 00       	callq  f500 <uniform_rnd>
    9cda:	83 c0 03             	add    $0x3,%eax
      if (ticks >= 375)  ++level;
    9cdd:	81 3d 09 56 01 00 76 	cmpl   $0x176,0x15609(%rip)        # 1f2f0 <ticks>
    9ce4:	01 00 00 
      data.l6.state = 3 + uniform_rnd (5);
    9ce7:	89 05 f3 55 01 00    	mov    %eax,0x155f3(%rip)        # 1f2e0 <data>
      if (ticks >= 375)  ++level;
    9ced:	7e 11                	jle    9d00 <level6+0x60>
    9cef:	83 05 06 56 01 00 01 	addl   $0x1,0x15606(%rip)        # 1f2fc <level>
    9cf6:	66 2e 0f 1f 84 00 00 	nopw   %cs:0x0(%rax,%rax,1)
    9cfd:	00 00 00 
    9d00:	8b 05 de 55 01 00    	mov    0x155de(%rip),%eax        # 1f2e4 <data+0x4>
  ++data.l6.spare_time;
    9d06:	8b 0d e0 55 01 00    	mov    0x155e0(%rip),%ecx        # 1f2ec <data+0xc>
  --data.l6.gap;
    9d0c:	83 e8 01             	sub    $0x1,%eax
    9d0f:	89 05 cf 55 01 00    	mov    %eax,0x155cf(%rip)        # 1f2e4 <data+0x4>
  ++data.l6.spare_time;
    9d15:	8d 79 01             	lea    0x1(%rcx),%edi
    9d18:	89 3d ce 55 01 00    	mov    %edi,0x155ce(%rip)        # 1f2ec <data+0xc>
  if (data.l6.gap <= 0) {
    9d1e:	85 c0                	test   %eax,%eax
    9d20:	7e 5e                	jle    9d80 <level6+0xe0>
  slip = (380-ticks)*3.0/374 + 1.5;
    9d22:	b8 7c 01 00 00       	mov    $0x17c,%eax
    9d27:	66 0f ef c0          	pxor   %xmm0,%xmm0
    9d2b:	2b 05 bf 55 01 00    	sub    0x155bf(%rip),%eax        # 1f2f0 <ticks>
    9d31:	f2 0f 2a c0          	cvtsi2sd %eax,%xmm0
    9d35:	f2 0f 59 05 eb 69 00 	mulsd  0x69eb(%rip),%xmm0        # 10728 <_IO_stdin_used+0x728>
    9d3c:	00 
    9d3d:	f2 0f 5e 05 43 fc 00 	divsd  0xfc43(%rip),%xmm0        # 19988 <__PRETTY_FUNCTION__.4560+0x118>
    9d44:	00 
    9d45:	f2 0f 58 05 43 fc 00 	addsd  0xfc43(%rip),%xmm0        # 19990 <__PRETTY_FUNCTION__.4560+0x120>
    9d4c:	00 
    9d4d:	f2 0f 2c d8          	cvttsd2si %xmm0,%ebx
  if (data.l6.spare_time >= 3+slip) {
    9d51:	8d 43 02             	lea    0x2(%rbx),%eax
    9d54:	39 f8                	cmp    %edi,%eax
    9d56:	7c 08                	jl     9d60 <level6+0xc0>
}
    9d58:	5b                   	pop    %rbx
    9d59:	c3                   	retq   
    9d5a:	66 0f 1f 44 00 00    	nopw   0x0(%rax,%rax,1)
    if (uniform_rnd (data.l6.spare_time) > 2) {
    9d60:	e8 9b 57 00 00       	callq  f500 <uniform_rnd>
    9d65:	83 f8 02             	cmp    $0x2,%eax
    9d68:	7e ee                	jle    9d58 <level6+0xb8>
      place_meteor ();
    9d6a:	e8 f1 19 00 00       	callq  b760 <place_meteor>
      data.l6.spare_time -= 3+slip;
    9d6f:	83 c3 03             	add    $0x3,%ebx
    9d72:	29 1d 74 55 01 00    	sub    %ebx,0x15574(%rip)        # 1f2ec <data+0xc>
}
    9d78:	5b                   	pop    %rbx
    9d79:	c3                   	retq   
    9d7a:	66 0f 1f 44 00 00    	nopw   0x0(%rax,%rax,1)
    if (data.l6.state) {
    9d80:	8b 05 5a 55 01 00    	mov    0x1555a(%rip),%eax        # 1f2e0 <data>
      hole = 2 + uniform_rnd (3);
    9d86:	bf 03 00 00 00       	mov    $0x3,%edi
    if (data.l6.state) {
    9d8b:	85 c0                	test   %eax,%eax
    9d8d:	74 41                	je     9dd0 <level6+0x130>
      hole = 2 + uniform_rnd (3);
    9d8f:	e8 6c 57 00 00       	callq  f500 <uniform_rnd>
      data.l6.next_gap = 15 + uniform_rnd (6) - hole;
    9d94:	bf 06 00 00 00       	mov    $0x6,%edi
      hole = 2 + uniform_rnd (3);
    9d99:	83 c0 02             	add    $0x2,%eax
    9d9c:	89 05 6a 55 01 00    	mov    %eax,0x1556a(%rip)        # 1f30c <hole>
      data.l6.next_gap = 15 + uniform_rnd (6) - hole;
    9da2:	e8 59 57 00 00       	callq  f500 <uniform_rnd>
    9da7:	83 c0 0f             	add    $0xf,%eax
    9daa:	2b 05 5c 55 01 00    	sub    0x1555c(%rip),%eax        # 1f30c <hole>
    9db0:	89 05 32 55 01 00    	mov    %eax,0x15532(%rip)        # 1f2e8 <data+0x8>
    data.l6.spare_time -= 11;
    9db6:	8b 05 30 55 01 00    	mov    0x15530(%rip),%eax        # 1f2ec <data+0xc>
    9dbc:	8d 78 f5             	lea    -0xb(%rax),%edi
    9dbf:	89 3d 27 55 01 00    	mov    %edi,0x15527(%rip)        # 1f2ec <data+0xc>
    9dc5:	e9 58 ff ff ff       	jmpq   9d22 <level6+0x82>
    9dca:	66 0f 1f 44 00 00    	nopw   0x0(%rax,%rax,1)
      if (uniform_rnd (3)) {
    9dd0:	e8 2b 57 00 00       	callq  f500 <uniform_rnd>
    9dd5:	85 c0                	test   %eax,%eax
    9dd7:	74 27                	je     9e00 <level6+0x160>
        hole = 5;
    9dd9:	c7 05 29 55 01 00 05 	movl   $0x5,0x15529(%rip)        # 1f30c <hole>
    9de0:	00 00 00 
        data.l6.next_gap = 9 + uniform_rnd (10);
    9de3:	bf 0a 00 00 00       	mov    $0xa,%edi
    9de8:	e8 13 57 00 00       	callq  f500 <uniform_rnd>
    9ded:	83 c0 09             	add    $0x9,%eax
    9df0:	89 05 f2 54 01 00    	mov    %eax,0x154f2(%rip)        # 1f2e8 <data+0x8>
    9df6:	eb be                	jmp    9db6 <level6+0x116>
    9df8:	0f 1f 84 00 00 00 00 	nopl   0x0(%rax,%rax,1)
    9dff:	00 
        hole = 2 + uniform_rnd (2);
    9e00:	bf 02 00 00 00       	mov    $0x2,%edi
    9e05:	e8 f6 56 00 00       	callq  f500 <uniform_rnd>
        data.l6.next_gap = 9;
    9e0a:	c7 05 d4 54 01 00 09 	movl   $0x9,0x154d4(%rip)        # 1f2e8 <data+0x8>
    9e11:	00 00 00 
        hole = 2 + uniform_rnd (2);
    9e14:	83 c0 02             	add    $0x2,%eax
    9e17:	89 05 ef 54 01 00    	mov    %eax,0x154ef(%rip)        # 1f30c <hole>
        data.l6.next_gap = 9;
    9e1d:	eb 97                	jmp    9db6 <level6+0x116>
    9e1f:	90                   	nop

0000000000009e20 <level3>:
{
    9e20:	f3 0f 1e fa          	endbr64 
  if (data.l3.state < 0) {
    9e24:	8b 15 b6 54 01 00    	mov    0x154b6(%rip),%edx        # 1f2e0 <data>
{
    9e2a:	53                   	push   %rbx
  if (data.l3.state < 0) {
    9e2b:	85 d2                	test   %edx,%edx
    9e2d:	0f 88 8d 00 00 00    	js     9ec0 <level3+0xa0>
  if (is_edge) {
    9e33:	8b 05 cb 54 01 00    	mov    0x154cb(%rip),%eax        # 1f304 <is_edge>
    9e39:	85 c0                	test   %eax,%eax
    9e3b:	75 33                	jne    9e70 <level3+0x50>
    9e3d:	8b 1d a1 54 01 00    	mov    0x154a1(%rip),%ebx        # 1f2e4 <data+0x4>
    9e43:	8b 15 9f 54 01 00    	mov    0x1549f(%rip),%edx        # 1f2e8 <data+0x8>
  --data.l3.gap;
    9e49:	8d 43 ff             	lea    -0x1(%rbx),%eax
    9e4c:	89 05 92 54 01 00    	mov    %eax,0x15492(%rip)        # 1f2e4 <data+0x4>
  if (data.l3.gap == data.l3.pos)  place_meteor ();
    9e52:	39 d0                	cmp    %edx,%eax
    9e54:	0f 84 7e 00 00 00    	je     9ed8 <level3+0xb8>
  if (data.l3.gap <= 0)  hole = 2;
    9e5a:	85 c0                	test   %eax,%eax
    9e5c:	7e 02                	jle    9e60 <level3+0x40>
}
    9e5e:	5b                   	pop    %rbx
    9e5f:	c3                   	retq   
  if (data.l3.gap <= 0)  hole = 2;
    9e60:	c7 05 a2 54 01 00 02 	movl   $0x2,0x154a2(%rip)        # 1f30c <hole>
    9e67:	00 00 00 
}
    9e6a:	5b                   	pop    %rbx
    9e6b:	c3                   	retq   
    9e6c:	0f 1f 40 00          	nopl   0x0(%rax)
    data.l3.gap = 20 + uniform_rnd (10);
    9e70:	bf 0a 00 00 00       	mov    $0xa,%edi
    9e75:	e8 86 56 00 00       	callq  f500 <uniform_rnd>
    if (ticks > 160)  ++data.l3.state;
    9e7a:	81 3d 6c 54 01 00 a0 	cmpl   $0xa0,0x1546c(%rip)        # 1f2f0 <ticks>
    9e81:	00 00 00 
    data.l3.gap = 20 + uniform_rnd (10);
    9e84:	8d 58 14             	lea    0x14(%rax),%ebx
    if (ticks > 160)  ++data.l3.state;
    9e87:	8b 05 53 54 01 00    	mov    0x15453(%rip),%eax        # 1f2e0 <data>
    data.l3.gap = 20 + uniform_rnd (10);
    9e8d:	89 1d 51 54 01 00    	mov    %ebx,0x15451(%rip)        # 1f2e4 <data+0x4>
    if (ticks > 160)  ++data.l3.state;
    9e93:	7f 5b                	jg     9ef0 <level3+0xd0>
    switch (data.l3.state) {
    9e95:	83 f8 01             	cmp    $0x1,%eax
    9e98:	0f 84 a2 00 00 00    	je     9f40 <level3+0x120>
    9e9e:	83 f8 02             	cmp    $0x2,%eax
    9ea1:	74 7d                	je     9f20 <level3+0x100>
    9ea3:	85 c0                	test   %eax,%eax
    9ea5:	74 59                	je     9f00 <level3+0xe0>
      bonus[0] += 20;
    9ea7:	48 8b 05 b2 6f 01 00 	mov    0x16fb2(%rip),%rax        # 20e60 <bonus>
      ++level;
    9eae:	83 05 47 54 01 00 01 	addl   $0x1,0x15447(%rip)        # 1f2fc <level>
    9eb5:	8b 15 2d 54 01 00    	mov    0x1542d(%rip),%edx        # 1f2e8 <data+0x8>
      bonus[0] += 20;
    9ebb:	83 00 14             	addl   $0x14,(%rax)
      break;
    9ebe:	eb 89                	jmp    9e49 <level3+0x29>
    place_meteor ();
    9ec0:	e8 9b 18 00 00       	callq  b760 <place_meteor>
    data.l3.state = 0;
    9ec5:	c7 05 11 54 01 00 00 	movl   $0x0,0x15411(%rip)        # 1f2e0 <data>
    9ecc:	00 00 00 
    9ecf:	e9 5f ff ff ff       	jmpq   9e33 <level3+0x13>
    9ed4:	0f 1f 40 00          	nopl   0x0(%rax)
  if (data.l3.gap == data.l3.pos)  place_meteor ();
    9ed8:	e8 83 18 00 00       	callq  b760 <place_meteor>
    9edd:	8b 05 01 54 01 00    	mov    0x15401(%rip),%eax        # 1f2e4 <data+0x4>
    9ee3:	e9 72 ff ff ff       	jmpq   9e5a <level3+0x3a>
    9ee8:	0f 1f 84 00 00 00 00 	nopl   0x0(%rax,%rax,1)
    9eef:	00 
    if (ticks > 160)  ++data.l3.state;
    9ef0:	83 c0 01             	add    $0x1,%eax
    9ef3:	89 05 e7 53 01 00    	mov    %eax,0x153e7(%rip)        # 1f2e0 <data>
    9ef9:	eb 9a                	jmp    9e95 <level3+0x75>
    9efb:	0f 1f 44 00 00       	nopl   0x0(%rax,%rax,1)
      data.l3.pos = uniform_rnd (5)+1;
    9f00:	bf 05 00 00 00       	mov    $0x5,%edi
    9f05:	e8 f6 55 00 00       	callq  f500 <uniform_rnd>
    9f0a:	8b 1d d4 53 01 00    	mov    0x153d4(%rip),%ebx        # 1f2e4 <data+0x4>
    9f10:	8d 50 01             	lea    0x1(%rax),%edx
    9f13:	89 15 cf 53 01 00    	mov    %edx,0x153cf(%rip)        # 1f2e8 <data+0x8>
      break;
    9f19:	e9 2b ff ff ff       	jmpq   9e49 <level3+0x29>
    9f1e:	66 90                	xchg   %ax,%ax
      data.l3.pos = data.l3.gap - uniform_rnd (2) - 1;
    9f20:	bf 02 00 00 00       	mov    $0x2,%edi
    9f25:	e8 d6 55 00 00       	callq  f500 <uniform_rnd>
    9f2a:	29 c3                	sub    %eax,%ebx
    9f2c:	8d 53 ff             	lea    -0x1(%rbx),%edx
    9f2f:	8b 1d af 53 01 00    	mov    0x153af(%rip),%ebx        # 1f2e4 <data+0x4>
    9f35:	89 15 ad 53 01 00    	mov    %edx,0x153ad(%rip)        # 1f2e8 <data+0x8>
      break;
    9f3b:	e9 09 ff ff ff       	jmpq   9e49 <level3+0x29>
      data.l3.pos = data.l3.gap - uniform_rnd (7) - 1;
    9f40:	bf 07 00 00 00       	mov    $0x7,%edi
    9f45:	eb de                	jmp    9f25 <level3+0x105>
    9f47:	66 0f 1f 84 00 00 00 	nopw   0x0(%rax,%rax,1)
    9f4e:	00 00 

0000000000009f50 <level4>:
{
    9f50:	f3 0f 1e fa          	endbr64 
    9f54:	48 83 ec 08          	sub    $0x8,%rsp
  if (is_edge) {
    9f58:	8b 05 a6 53 01 00    	mov    0x153a6(%rip),%eax        # 1f304 <is_edge>
    9f5e:	85 c0                	test   %eax,%eax
    9f60:	75 1e                	jne    9f80 <level4+0x30>
    9f62:	8b 05 7c 53 01 00    	mov    0x1537c(%rip),%eax        # 1f2e4 <data+0x4>
  --data.l4.gap;
    9f68:	83 e8 01             	sub    $0x1,%eax
    9f6b:	89 05 73 53 01 00    	mov    %eax,0x15373(%rip)        # 1f2e4 <data+0x4>
  if (data.l4.gap <= 0) {
    9f71:	85 c0                	test   %eax,%eax
    9f73:	7e 51                	jle    9fc6 <level4+0x76>
}
    9f75:	48 83 c4 08          	add    $0x8,%rsp
    9f79:	c3                   	retq   
    9f7a:	66 0f 1f 44 00 00    	nopw   0x0(%rax,%rax,1)
    data.l4.gap = data.l4.next_gap;
    9f80:	8b 05 62 53 01 00    	mov    0x15362(%rip),%eax        # 1f2e8 <data+0x8>
    if (data.l4.state == 0 && ticks < 700) {
    9f86:	8b 15 54 53 01 00    	mov    0x15354(%rip),%edx        # 1f2e0 <data>
    data.l4.gap = data.l4.next_gap;
    9f8c:	89 05 52 53 01 00    	mov    %eax,0x15352(%rip)        # 1f2e4 <data+0x4>
    if (data.l4.state == 0 && ticks < 700) {
    9f92:	85 d2                	test   %edx,%edx
    9f94:	75 0e                	jne    9fa4 <level4+0x54>
    9f96:	8b 0d 54 53 01 00    	mov    0x15354(%rip),%ecx        # 1f2f0 <ticks>
    9f9c:	81 f9 bb 02 00 00    	cmp    $0x2bb,%ecx
    9fa2:	7e 4c                	jle    9ff0 <level4+0xa0>
      --data.l4.state;
    9fa4:	83 ea 01             	sub    $0x1,%edx
    9fa7:	89 15 33 53 01 00    	mov    %edx,0x15333(%rip)        # 1f2e0 <data>
    if (data.l4.state < -5)  ++level;
    9fad:	83 fa fb             	cmp    $0xfffffffb,%edx
    9fb0:	7d b6                	jge    9f68 <level4+0x18>
  --data.l4.gap;
    9fb2:	83 e8 01             	sub    $0x1,%eax
    if (data.l4.state < -5)  ++level;
    9fb5:	83 05 40 53 01 00 01 	addl   $0x1,0x15340(%rip)        # 1f2fc <level>
  --data.l4.gap;
    9fbc:	89 05 22 53 01 00    	mov    %eax,0x15322(%rip)        # 1f2e4 <data+0x4>
  if (data.l4.gap <= 0) {
    9fc2:	85 c0                	test   %eax,%eax
    9fc4:	7f af                	jg     9f75 <level4+0x25>
    switch (data.l4.state) {
    9fc6:	8b 05 14 53 01 00    	mov    0x15314(%rip),%eax        # 1f2e0 <data>
    9fcc:	83 c0 05             	add    $0x5,%eax
    9fcf:	83 f8 05             	cmp    $0x5,%eax
    9fd2:	0f 87 17 01 00 00    	ja     a0ef <level4+0x19f>
    9fd8:	48 8d 15 e1 f7 00 00 	lea    0xf7e1(%rip),%rdx        # 197c0 <_IO_stdin_used+0x97c0>
    9fdf:	48 63 04 82          	movslq (%rdx,%rax,4),%rax
    9fe3:	48 01 d0             	add    %rdx,%rax
    9fe6:	3e ff e0             	notrack jmpq *%rax
    9fe9:	0f 1f 80 00 00 00 00 	nopl   0x0(%rax)
      data.l4.state = 3 + uniform_rnd (3 + 2*(ticks < 350));
    9ff0:	31 ff                	xor    %edi,%edi
    9ff2:	81 f9 5e 01 00 00    	cmp    $0x15e,%ecx
    9ff8:	40 0f 9c c7          	setl   %dil
    9ffc:	8d 7c 3f 03          	lea    0x3(%rdi,%rdi,1),%edi
    a000:	e8 fb 54 00 00       	callq  f500 <uniform_rnd>
    a005:	8d 50 03             	lea    0x3(%rax),%edx
    a008:	8b 05 d6 52 01 00    	mov    0x152d6(%rip),%eax        # 1f2e4 <data+0x4>
    a00e:	89 15 cc 52 01 00    	mov    %edx,0x152cc(%rip)        # 1f2e0 <data>
    a014:	eb 97                	jmp    9fad <level4+0x5d>
    a016:	66 2e 0f 1f 84 00 00 	nopw   %cs:0x0(%rax,%rax,1)
    a01d:	00 00 00 
      hole = 3;
    a020:	c7 05 e2 52 01 00 03 	movl   $0x3,0x152e2(%rip)        # 1f30c <hole>
    a027:	00 00 00 
      data.l4.next_gap = 14;
    a02a:	c7 05 b4 52 01 00 0e 	movl   $0xe,0x152b4(%rip)        # 1f2e8 <data+0x8>
    a031:	00 00 00 
      break;
    a034:	e9 3c ff ff ff       	jmpq   9f75 <level4+0x25>
    a039:	0f 1f 80 00 00 00 00 	nopl   0x0(%rax)
      hole = 6;
    a040:	c7 05 c2 52 01 00 06 	movl   $0x6,0x152c2(%rip)        # 1f30c <hole>
    a047:	00 00 00 
      data.l4.next_gap = 6;
    a04a:	c7 05 94 52 01 00 06 	movl   $0x6,0x15294(%rip)        # 1f2e8 <data+0x8>
    a051:	00 00 00 
      break;
    a054:	e9 1c ff ff ff       	jmpq   9f75 <level4+0x25>
    a059:	0f 1f 80 00 00 00 00 	nopl   0x0(%rax)
      hole = 4;
    a060:	c7 05 a2 52 01 00 04 	movl   $0x4,0x152a2(%rip)        # 1f30c <hole>
    a067:	00 00 00 
      data.l4.next_gap = 16 + uniform_rnd (6);
    a06a:	bf 06 00 00 00       	mov    $0x6,%edi
    a06f:	e8 8c 54 00 00       	callq  f500 <uniform_rnd>
    a074:	83 c0 10             	add    $0x10,%eax
    a077:	89 05 6b 52 01 00    	mov    %eax,0x1526b(%rip)        # 1f2e8 <data+0x8>
      break;
    a07d:	e9 f3 fe ff ff       	jmpq   9f75 <level4+0x25>
    a082:	66 0f 1f 44 00 00    	nopw   0x0(%rax,%rax,1)
      hole = 2;
    a088:	c7 05 7a 52 01 00 02 	movl   $0x2,0x1527a(%rip)        # 1f30c <hole>
    a08f:	00 00 00 
      data.l4.next_gap = 7;
    a092:	c7 05 4c 52 01 00 07 	movl   $0x7,0x1524c(%rip)        # 1f2e8 <data+0x8>
    a099:	00 00 00 
      break;
    a09c:	e9 d4 fe ff ff       	jmpq   9f75 <level4+0x25>
    a0a1:	0f 1f 80 00 00 00 00 	nopl   0x0(%rax)
      hole = 5;
    a0a8:	c7 05 5a 52 01 00 05 	movl   $0x5,0x1525a(%rip)        # 1f30c <hole>
    a0af:	00 00 00 
      data.l4.next_gap = 12;
    a0b2:	c7 05 2c 52 01 00 0c 	movl   $0xc,0x1522c(%rip)        # 1f2e8 <data+0x8>
    a0b9:	00 00 00 
}
    a0bc:	e9 b4 fe ff ff       	jmpq   9f75 <level4+0x25>
    a0c1:	0f 1f 80 00 00 00 00 	nopl   0x0(%rax)
      if (uniform_rnd (2)) {
    a0c8:	bf 02 00 00 00       	mov    $0x2,%edi
    a0cd:	e8 2e 54 00 00       	callq  f500 <uniform_rnd>
    a0d2:	85 c0                	test   %eax,%eax
    a0d4:	75 4a                	jne    a120 <level4+0x1d0>
        hole = 2;
    a0d6:	c7 05 2c 52 01 00 02 	movl   $0x2,0x1522c(%rip)        # 1f30c <hole>
    a0dd:	00 00 00 
        data.l4.next_gap = 8;
    a0e0:	c7 05 fe 51 01 00 08 	movl   $0x8,0x151fe(%rip)        # 1f2e8 <data+0x8>
    a0e7:	00 00 00 
    a0ea:	e9 86 fe ff ff       	jmpq   9f75 <level4+0x25>
      hole = 2 + uniform_rnd (3);
    a0ef:	bf 03 00 00 00       	mov    $0x3,%edi
    a0f4:	e8 07 54 00 00       	callq  f500 <uniform_rnd>
      data.l4.next_gap = 14 + uniform_rnd (6) - hole;
    a0f9:	bf 06 00 00 00       	mov    $0x6,%edi
      hole = 2 + uniform_rnd (3);
    a0fe:	83 c0 02             	add    $0x2,%eax
    a101:	89 05 05 52 01 00    	mov    %eax,0x15205(%rip)        # 1f30c <hole>
      data.l4.next_gap = 14 + uniform_rnd (6) - hole;
    a107:	e8 f4 53 00 00       	callq  f500 <uniform_rnd>
    a10c:	83 c0 0e             	add    $0xe,%eax
    a10f:	2b 05 f7 51 01 00    	sub    0x151f7(%rip),%eax        # 1f30c <hole>
    a115:	89 05 cd 51 01 00    	mov    %eax,0x151cd(%rip)        # 1f2e8 <data+0x8>
      break;
    a11b:	e9 55 fe ff ff       	jmpq   9f75 <level4+0x25>
        hole = 5;
    a120:	c7 05 e2 51 01 00 05 	movl   $0x5,0x151e2(%rip)        # 1f30c <hole>
    a127:	00 00 00 
        data.l4.next_gap = 9 + uniform_rnd (10);
    a12a:	bf 0a 00 00 00       	mov    $0xa,%edi
    a12f:	e8 cc 53 00 00       	callq  f500 <uniform_rnd>
    a134:	83 c0 09             	add    $0x9,%eax
    a137:	89 05 ab 51 01 00    	mov    %eax,0x151ab(%rip)        # 1f2e8 <data+0x8>
    a13d:	e9 33 fe ff ff       	jmpq   9f75 <level4+0x25>
    a142:	66 66 2e 0f 1f 84 00 	data16 nopw %cs:0x0(%rax,%rax,1)
    a149:	00 00 00 00 
    a14d:	0f 1f 00             	nopl   (%rax)

000000000000a150 <level5>:
{
    a150:	f3 0f 1e fa          	endbr64 
    a154:	48 83 ec 08          	sub    $0x8,%rsp
  if (uniform_rnd (ticks % 20 < 8 ? 4 : 8) == 0)  place_meteor ();
    a158:	48 63 05 91 51 01 00 	movslq 0x15191(%rip),%rax        # 1f2f0 <ticks>
    a15f:	31 ff                	xor    %edi,%edi
    a161:	48 89 c2             	mov    %rax,%rdx
    a164:	48 69 c0 67 66 66 66 	imul   $0x66666667,%rax,%rax
    a16b:	89 d1                	mov    %edx,%ecx
    a16d:	c1 f9 1f             	sar    $0x1f,%ecx
    a170:	48 c1 f8 23          	sar    $0x23,%rax
    a174:	29 c8                	sub    %ecx,%eax
    a176:	8d 04 80             	lea    (%rax,%rax,4),%eax
    a179:	c1 e0 02             	shl    $0x2,%eax
    a17c:	29 c2                	sub    %eax,%edx
    a17e:	83 fa 08             	cmp    $0x8,%edx
    a181:	40 0f 9d c7          	setge  %dil
    a185:	8d 3c bd 04 00 00 00 	lea    0x4(,%rdi,4),%edi
    a18c:	e8 6f 53 00 00       	callq  f500 <uniform_rnd>
    a191:	85 c0                	test   %eax,%eax
    a193:	74 1b                	je     a1b0 <level5+0x60>
  if (ticks >= 125)  ++level;
    a195:	83 3d 54 51 01 00 7c 	cmpl   $0x7c,0x15154(%rip)        # 1f2f0 <ticks>
    a19c:	7e 07                	jle    a1a5 <level5+0x55>
    a19e:	83 05 57 51 01 00 01 	addl   $0x1,0x15157(%rip)        # 1f2fc <level>
}
    a1a5:	48 83 c4 08          	add    $0x8,%rsp
    a1a9:	c3                   	retq   
    a1aa:	66 0f 1f 44 00 00    	nopw   0x0(%rax,%rax,1)
  if (uniform_rnd (ticks % 20 < 8 ? 4 : 8) == 0)  place_meteor ();
    a1b0:	e8 ab 15 00 00       	callq  b760 <place_meteor>
    a1b5:	eb de                	jmp    a195 <level5+0x45>
    a1b7:	66 0f 1f 84 00 00 00 	nopw   0x0(%rax,%rax,1)
    a1be:	00 00 

000000000000a1c0 <level_start>:
};

void
level_start (int initial)
/* Start the game anew with level INITIAL.  */
{
    a1c0:	f3 0f 1e fa          	endbr64 
  assert (initial >= 0 && initial < LEVEL_COUNT);
    a1c4:	83 ff 07             	cmp    $0x7,%edi
    a1c7:	77 21                	ja     a1ea <level_start+0x2a>
  level = initial_level = initial;
    a1c9:	89 3d 29 51 01 00    	mov    %edi,0x15129(%rip)        # 1f2f8 <initial_level>
    a1cf:	89 3d 27 51 01 00    	mov    %edi,0x15127(%rip)        # 1f2fc <level>
  last_level = -1;
    a1d5:	c7 05 15 51 01 00 ff 	movl   $0xffffffff,0x15115(%rip)        # 1f2f4 <last_level>
    a1dc:	ff ff ff 
  ticks = 0;
    a1df:	c7 05 07 51 01 00 00 	movl   $0x0,0x15107(%rip)        # 1f2f0 <ticks>
    a1e6:	00 00 00 
    a1e9:	c3                   	retq   
{
    a1ea:	50                   	push   %rax
  assert (initial >= 0 && initial < LEVEL_COUNT);
    a1eb:	48 8d 0d 7e f6 00 00 	lea    0xf67e(%rip),%rcx        # 19870 <__PRETTY_FUNCTION__.4560>
    a1f2:	ba 99 01 00 00       	mov    $0x199,%edx
    a1f7:	48 8d 35 7e f6 00 00 	lea    0xf67e(%rip),%rsi        # 1987c <__PRETTY_FUNCTION__.4560+0xc>
    a1fe:	48 8d 3d bb f6 00 00 	lea    0xf6bb(%rip),%rdi        # 198c0 <__PRETTY_FUNCTION__.4560+0x50>
    a205:	e8 d6 d6 ff ff       	callq  78e0 <__assert_fail@plt>
    a20a:	66 0f 1f 44 00 00    	nopw   0x0(%rax,%rax,1)

000000000000a210 <level_tick>:
level_tick (double t)
/* Advance the current level's state by one.
 * The function must be called every time the ground moved.  It fills
 * in the new values of `ground2[0]' and `bonus[0]'.  The parameter T
 * must be the current game time.  */
{
    a210:	f3 0f 1e fa          	endbr64 
    a214:	53                   	push   %rbx
    a215:	66 0f 28 c8          	movapd %xmm0,%xmm1
    a219:	48 83 ec 10          	sub    $0x10,%rsp
  int  ground;

  bonus[0] = 0;
    a21d:	48 8b 05 3c 6c 01 00 	mov    0x16c3c(%rip),%rax        # 20e60 <bonus>
  if (level != last_level) {
    a224:	8b 0d ca 50 01 00    	mov    0x150ca(%rip),%ecx        # 1f2f4 <last_level>
  bonus[0] = 0;
    a22a:	c7 00 00 00 00 00    	movl   $0x0,(%rax)
  if (level != last_level) {
    a230:	8b 05 c6 50 01 00    	mov    0x150c6(%rip),%eax        # 1f2fc <level>
    a236:	39 c8                	cmp    %ecx,%eax
    a238:	0f 84 c4 00 00 00    	je     a302 <level_tick+0xf2>
    double  msg_t;
    level = level % LEVEL_COUNT;
    a23e:	99                   	cltd   
    hole = 0;
    if (levels[level].init_fn)  levels[level].init_fn ();
    a23f:	48 8d 1d fa 45 01 00 	lea    0x145fa(%rip),%rbx        # 1e840 <levels>
    hole = 0;
    a246:	c7 05 bc 50 01 00 00 	movl   $0x0,0x150bc(%rip)        # 1f30c <hole>
    a24d:	00 00 00 
    level = level % LEVEL_COUNT;
    a250:	c1 ea 1d             	shr    $0x1d,%edx
    a253:	01 d0                	add    %edx,%eax
    a255:	83 e0 07             	and    $0x7,%eax
    a258:	29 d0                	sub    %edx,%eax
    if (levels[level].init_fn)  levels[level].init_fn ();
    a25a:	48 63 d0             	movslq %eax,%rdx
    level = level % LEVEL_COUNT;
    a25d:	89 05 99 50 01 00    	mov    %eax,0x15099(%rip)        # 1f2fc <level>
    if (levels[level].init_fn)  levels[level].init_fn ();
    a263:	48 8d 14 52          	lea    (%rdx,%rdx,2),%rdx
    a267:	48 8b 14 d3          	mov    (%rbx,%rdx,8),%rdx
    a26b:	48 85 d2             	test   %rdx,%rdx
    a26e:	74 1a                	je     a28a <level_tick+0x7a>
    a270:	f2 0f 11 44 24 08    	movsd  %xmm0,0x8(%rsp)
    a276:	ff d2                	callq  *%rdx
    a278:	8b 0d 76 50 01 00    	mov    0x15076(%rip),%ecx        # 1f2f4 <last_level>
    a27e:	8b 05 78 50 01 00    	mov    0x15078(%rip),%eax        # 1f2fc <level>
    a284:	f2 0f 10 4c 24 08    	movsd  0x8(%rsp),%xmm1
    if (last_level >= 0) {
      ticks = -PAUSE;
      msg_t = t + TICK(car_x + PAUSE/5);
    } else {
      msg_t = t;
    a28a:	66 0f 28 c1          	movapd %xmm1,%xmm0
    if (last_level >= 0) {
    a28e:	85 c9                	test   %ecx,%ecx
    a290:	78 27                	js     a2b9 <level_tick+0xa9>
      msg_t = t + TICK(car_x + PAUSE/5);
    a292:	8b 3d d0 6b 01 00    	mov    0x16bd0(%rip),%edi        # 20e68 <car_x>
    a298:	66 0f ef c0          	pxor   %xmm0,%xmm0
      ticks = -PAUSE;
    a29c:	c7 05 4a 50 01 00 d8 	movl   $0xffffffd8,0x1504a(%rip)        # 1f2f0 <ticks>
    a2a3:	ff ff ff 
      msg_t = t + TICK(car_x + PAUSE/5);
    a2a6:	8d 57 08             	lea    0x8(%rdi),%edx
    a2a9:	f2 0f 2a c2          	cvtsi2sd %edx,%xmm0
    a2ad:	f2 0f 59 05 e3 f6 00 	mulsd  0xf6e3(%rip),%xmm0        # 19998 <__PRETTY_FUNCTION__.4560+0x128>
    a2b4:	00 
    a2b5:	f2 0f 58 c1          	addsd  %xmm1,%xmm0
    }
    if (levels[level].msg) {
    a2b9:	48 63 d0             	movslq %eax,%rdx
    a2bc:	48 8d 14 52          	lea    (%rdx,%rdx,2),%rdx
    a2c0:	48 8b 74 d3 10       	mov    0x10(%rbx,%rdx,8),%rsi
    a2c5:	48 85 f6             	test   %rsi,%rsi
    a2c8:	74 1e                	je     a2e8 <level_tick+0xd8>
      add_event (msg_t, print_hint_h, (void *)levels[level].msg);
    a2ca:	48 8d 3d 9f 38 00 00 	lea    0x389f(%rip),%rdi        # db70 <print_hint_h>
    a2d1:	f2 0f 11 4c 24 08    	movsd  %xmm1,0x8(%rsp)
    a2d7:	e8 c4 34 00 00       	callq  d7a0 <add_event>
    a2dc:	8b 05 1a 50 01 00    	mov    0x1501a(%rip),%eax        # 1f2fc <level>
    a2e2:	f2 0f 10 4c 24 08    	movsd  0x8(%rsp),%xmm1
    }
    last_level = level;
    a2e8:	89 05 06 50 01 00    	mov    %eax,0x15006(%rip)        # 1f2f4 <last_level>
    is_edge = 1;
    a2ee:	c7 05 0c 50 01 00 01 	movl   $0x1,0x1500c(%rip)        # 1f304 <is_edge>
    a2f5:	00 00 00 
    crater_seen = 0;
    a2f8:	c7 05 fe 4f 01 00 00 	movl   $0x0,0x14ffe(%rip)        # 1f300 <crater_seen>
    a2ff:	00 00 00 
  }
  if (ticks < 0) {
    a302:	8b 35 e8 4f 01 00    	mov    0x14fe8(%rip),%esi        # 1f2f0 <ticks>
    a308:	85 f6                	test   %esi,%esi
    a30a:	0f 88 98 00 00 00    	js     a3a8 <level_tick+0x198>
    ground = '#';
  } else if (hole > 0) {
    a310:	8b 05 f6 4f 01 00    	mov    0x14ff6(%rip),%eax        # 1f30c <hole>
    a316:	85 c0                	test   %eax,%eax
    a318:	7e 26                	jle    a340 <level_tick+0x130>
    if (! crater_seen) {
    a31a:	8b 0d e0 4f 01 00    	mov    0x14fe0(%rip),%ecx        # 1f300 <crater_seen>
    a320:	85 c9                	test   %ecx,%ecx
    a322:	0f 84 a8 00 00 00    	je     a3d0 <level_tick+0x1c0>
      crater_seen = 1;
      plateau = 0;
    }

    ground = ' ';
    --hole;
    a328:	83 e8 01             	sub    $0x1,%eax
    a32b:	ba 20 00 00 00       	mov    $0x20,%edx
    a330:	89 05 d6 4f 01 00    	mov    %eax,0x14fd6(%rip)        # 1f30c <hole>
    a336:	eb 75                	jmp    a3ad <level_tick+0x19d>
    a338:	0f 1f 84 00 00 00 00 	nopl   0x0(%rax,%rax,1)
    a33f:	00 
  } else {
    levels[level].fn (t);
    a340:	48 63 05 b5 4f 01 00 	movslq 0x14fb5(%rip),%rax        # 1f2fc <level>
    a347:	66 0f 28 c1          	movapd %xmm1,%xmm0
    a34b:	48 8d 14 40          	lea    (%rax,%rax,2),%rdx
    a34f:	48 8d 05 ea 44 01 00 	lea    0x144ea(%rip),%rax        # 1e840 <levels>
    a356:	ff 54 d0 08          	callq  *0x8(%rax,%rdx,8)
    is_edge = 0;
    crater_seen = 0;

    ground = '#';
    ++plateau;
    a35a:	8b 05 a8 4f 01 00    	mov    0x14fa8(%rip),%eax        # 1f308 <plateau>
  if (width > 8)  return;
    a360:	8b 15 a6 4f 01 00    	mov    0x14fa6(%rip),%edx        # 1f30c <hole>
    is_edge = 0;
    a366:	c7 05 94 4f 01 00 00 	movl   $0x0,0x14f94(%rip)        # 1f304 <is_edge>
    a36d:	00 00 00 
    crater_seen = 0;
    a370:	c7 05 86 4f 01 00 00 	movl   $0x0,0x14f86(%rip)        # 1f300 <crater_seen>
    a377:	00 00 00 
    ++plateau;
    a37a:	83 c0 01             	add    $0x1,%eax
    a37d:	89 05 85 4f 01 00    	mov    %eax,0x14f85(%rip)        # 1f308 <plateau>
  if (width > 8)  return;
    a383:	85 d2                	test   %edx,%edx
    a385:	7e 21                	jle    a3a8 <level_tick+0x198>
    a387:	83 f8 08             	cmp    $0x8,%eax
    a38a:	7f 1c                	jg     a3a8 <level_tick+0x198>
  bonus[0] += score_table [width];
    a38c:	48 8b 15 cd 6a 01 00 	mov    0x16acd(%rip),%rdx        # 20e60 <bonus>
    a393:	48 98                	cltq   
    a395:	48 8d 0d 44 f4 00 00 	lea    0xf444(%rip),%rcx        # 197e0 <score_table.4569>
    a39c:	8b 04 81             	mov    (%rcx,%rax,4),%eax
    a39f:	01 02                	add    %eax,(%rdx)
    a3a1:	0f 1f 80 00 00 00 00 	nopl   0x0(%rax)
    a3a8:	ba 23 00 00 00       	mov    $0x23,%edx
    if (hole > 0)  score_plateau (plateau);
  }

  ground2[0] = ground;
    a3ad:	48 8b 05 a4 6a 01 00 	mov    0x16aa4(%rip),%rax        # 20e58 <ground2>
    a3b4:	88 10                	mov    %dl,(%rax)
  print_buggy(); /* ++pg now the refresh of the car is needed here. */
    a3b6:	e8 05 06 00 00       	callq  a9c0 <print_buggy>

  ++ticks;
    a3bb:	83 05 2e 4f 01 00 01 	addl   $0x1,0x14f2e(%rip)        # 1f2f0 <ticks>
}
    a3c2:	48 83 c4 10          	add    $0x10,%rsp
    a3c6:	5b                   	pop    %rbx
    a3c7:	c3                   	retq   
    a3c8:	0f 1f 84 00 00 00 00 	nopl   0x0(%rax,%rax,1)
    a3cf:	00 
  assert (width < 7);
    a3d0:	83 f8 06             	cmp    $0x6,%eax
    a3d3:	7f 39                	jg     a40e <level_tick+0x1fe>
  bonus[0] += score_table [width];
    a3d5:	48 8b 0d 84 6a 01 00 	mov    0x16a84(%rip),%rcx        # 20e60 <bonus>
    a3dc:	48 63 d0             	movslq %eax,%rdx
    a3df:	48 8d 35 2a f4 00 00 	lea    0xf42a(%rip),%rsi        # 19810 <score_table.4564>
      is_edge = 1;
    a3e6:	c7 05 14 4f 01 00 01 	movl   $0x1,0x14f14(%rip)        # 1f304 <is_edge>
    a3ed:	00 00 00 
      crater_seen = 1;
    a3f0:	c7 05 06 4f 01 00 01 	movl   $0x1,0x14f06(%rip)        # 1f300 <crater_seen>
    a3f7:	00 00 00 
  bonus[0] += score_table [width];
    a3fa:	8b 14 96             	mov    (%rsi,%rdx,4),%edx
      plateau = 0;
    a3fd:	c7 05 01 4f 01 00 00 	movl   $0x0,0x14f01(%rip)        # 1f308 <plateau>
    a404:	00 00 00 
  bonus[0] += score_table [width];
    a407:	01 11                	add    %edx,(%rcx)
      plateau = 0;
    a409:	e9 1a ff ff ff       	jmpq   a328 <level_tick+0x118>
  assert (width < 7);
    a40e:	48 8d 0d 1b f4 00 00 	lea    0xf41b(%rip),%rcx        # 19830 <__PRETTY_FUNCTION__.4565>
    a415:	ba a3 01 00 00       	mov    $0x1a3,%edx
    a41a:	48 8d 35 5b f4 00 00 	lea    0xf45b(%rip),%rsi        # 1987c <__PRETTY_FUNCTION__.4560+0xc>
    a421:	48 8d 3d 5c f4 00 00 	lea    0xf45c(%rip),%rdi        # 19884 <__PRETTY_FUNCTION__.4560+0x14>
    a428:	e8 b3 d4 ff ff       	callq  78e0 <__assert_fail@plt>
    a42d:	0f 1f 00             	nopl   (%rax)

000000000000a430 <current_level>:

int
current_level (void)
/* Return the current level's number as the car sees it.  */
{
    a430:	f3 0f 1e fa          	endbr64 
  int  res = (ticks+PAUSE/2 >= car_x) ? level : level - 1;
    a434:	8b 0d b6 4e 01 00    	mov    0x14eb6(%rip),%ecx        # 1f2f0 <ticks>
    a43a:	8b 05 bc 4e 01 00    	mov    0x14ebc(%rip),%eax        # 1f2fc <level>
    a440:	8d 51 14             	lea    0x14(%rcx),%edx
    a443:	3b 15 1f 6a 01 00    	cmp    0x16a1f(%rip),%edx        # 20e68 <car_x>
    a449:	0f 9c c2             	setl   %dl
    a44c:	0f b6 d2             	movzbl %dl,%edx
    a44f:	29 d0                	sub    %edx,%eax
  if (res < initial_level)  res = initial_level;
  return  res;
    a451:	39 05 a1 4e 01 00    	cmp    %eax,0x14ea1(%rip)        # 1f2f8 <initial_level>
    a457:	0f 4d 05 9a 4e 01 00 	cmovge 0x14e9a(%rip),%eax        # 1f2f8 <initial_level>
}
    a45e:	c3                   	retq   
    a45f:	90                   	nop

000000000000a460 <resize_ground>:
static int  ground_width;


void
resize_ground (int clear_it)
{
    a460:	f3 0f 1e fa          	endbr64 
    a464:	41 54                	push   %r12
    a466:	55                   	push   %rbp
    a467:	89 fd                	mov    %edi,%ebp
    a469:	53                   	push   %rbx
  int  cols, i, old;

  cols = COLS;
    a46a:	8b 1d 10 4e 01 00    	mov    0x14e10(%rip),%ebx        # 1f280 <COLS@@NCURSES6_TINFO_5.0.19991023>
  if (ground_width != cols) {
    a470:	39 1d 9a 4e 01 00    	cmp    %ebx,0x14e9a(%rip)        # 1f310 <ground_width>
    a476:	74 4a                	je     a4c2 <resize_ground+0x62>
    bonus = xrealloc (bonus, cols*sizeof(int));
    a478:	4c 63 e3             	movslq %ebx,%r12
    a47b:	48 8b 3d de 69 01 00 	mov    0x169de(%rip),%rdi        # 20e60 <bonus>
    a482:	4a 8d 34 a5 00 00 00 	lea    0x0(,%r12,4),%rsi
    a489:	00 
    a48a:	e8 01 52 00 00       	callq  f690 <xrealloc>
    ground1 = xrealloc (ground1, cols);
    a48f:	48 8b 3d ba 69 01 00 	mov    0x169ba(%rip),%rdi        # 20e50 <ground1>
    a496:	4c 89 e6             	mov    %r12,%rsi
    bonus = xrealloc (bonus, cols*sizeof(int));
    a499:	48 89 05 c0 69 01 00 	mov    %rax,0x169c0(%rip)        # 20e60 <bonus>
    ground1 = xrealloc (ground1, cols);
    a4a0:	e8 eb 51 00 00       	callq  f690 <xrealloc>
    ground2 = xrealloc (ground2, cols);
    a4a5:	48 8b 3d ac 69 01 00 	mov    0x169ac(%rip),%rdi        # 20e58 <ground2>
    a4ac:	4c 89 e6             	mov    %r12,%rsi
    ground1 = xrealloc (ground1, cols);
    a4af:	48 89 05 9a 69 01 00 	mov    %rax,0x1699a(%rip)        # 20e50 <ground1>
    ground2 = xrealloc (ground2, cols);
    a4b6:	e8 d5 51 00 00       	callq  f690 <xrealloc>
    a4bb:	48 89 05 96 69 01 00 	mov    %rax,0x16996(%rip)        # 20e58 <ground2>
  }
  for (i=(clear_it ? 0 : ground_width); i<cols; ++i) {
    a4c2:	85 ed                	test   %ebp,%ebp
    a4c4:	ba 00 00 00 00       	mov    $0x0,%edx
    a4c9:	0f 44 15 40 4e 01 00 	cmove  0x14e40(%rip),%edx        # 1f310 <ground_width>
    a4d0:	39 da                	cmp    %ebx,%edx
    a4d2:	7d 44                	jge    a518 <resize_ground+0xb8>
    a4d4:	48 63 c2             	movslq %edx,%rax
    a4d7:	8d 73 ff             	lea    -0x1(%rbx),%esi
    a4da:	29 d6                	sub    %edx,%esi
    a4dc:	48 8d 50 01          	lea    0x1(%rax),%rdx
    a4e0:	48 01 d6             	add    %rdx,%rsi
    a4e3:	eb 07                	jmp    a4ec <resize_ground+0x8c>
    a4e5:	0f 1f 00             	nopl   (%rax)
    a4e8:	48 83 c2 01          	add    $0x1,%rdx
    bonus[i] = 0;
    a4ec:	48 8b 0d 6d 69 01 00 	mov    0x1696d(%rip),%rcx        # 20e60 <bonus>
    a4f3:	c7 04 81 00 00 00 00 	movl   $0x0,(%rcx,%rax,4)
    ground1[i] = '#';
    a4fa:	48 8b 0d 4f 69 01 00 	mov    0x1694f(%rip),%rcx        # 20e50 <ground1>
    a501:	c6 04 01 23          	movb   $0x23,(%rcx,%rax,1)
    ground2[i] = '#';
    a505:	48 8b 0d 4c 69 01 00 	mov    0x1694c(%rip),%rcx        # 20e58 <ground2>
    a50c:	c6 04 01 23          	movb   $0x23,(%rcx,%rax,1)
  for (i=(clear_it ? 0 : ground_width); i<cols; ++i) {
    a510:	48 89 d0             	mov    %rdx,%rax
    a513:	48 39 d6             	cmp    %rdx,%rsi
    a516:	75 d0                	jne    a4e8 <resize_ground+0x88>
  }
  ground_width = cols;
  old = car_base;
  car_base = (cols > 80 ? 80 : cols) - 12;
    a518:	83 fb 50             	cmp    $0x50,%ebx
    a51b:	ba 50 00 00 00       	mov    $0x50,%edx
  ground_width = cols;
    a520:	89 1d ea 4d 01 00    	mov    %ebx,0x14dea(%rip)        # 1f310 <ground_width>
  old = car_base;
    a526:	8b 05 cc 68 01 00    	mov    0x168cc(%rip),%eax        # 20df8 <car_base>
  car_base = (cols > 80 ? 80 : cols) - 12;
    a52c:	0f 4f da             	cmovg  %edx,%ebx
    a52f:	83 eb 0c             	sub    $0xc,%ebx
    a532:	89 1d c0 68 01 00    	mov    %ebx,0x168c0(%rip)        # 20df8 <car_base>
  car_x += (car_base-old);
    a538:	29 c3                	sub    %eax,%ebx
    a53a:	01 1d 28 69 01 00    	add    %ebx,0x16928(%rip)        # 20e68 <car_x>
}
    a540:	5b                   	pop    %rbx
    a541:	5d                   	pop    %rbp
    a542:	41 5c                	pop    %r12
    a544:	c3                   	retq   
    a545:	66 66 2e 0f 1f 84 00 	data16 nopw %cs:0x0(%rax,%rax,1)
    a54c:	00 00 00 00 

000000000000a550 <print_ground>:

void
print_ground (void)
{
    a550:	f3 0f 1e fa          	endbr64 
    a554:	48 83 ec 08          	sub    $0x8,%rsp
  mvwaddnstr (moon, LINES-4, 0, ground2, ground_width);
    a558:	8b 05 26 4d 01 00    	mov    0x14d26(%rip),%eax        # 1f284 <LINES@@NCURSES6_TINFO_5.0.19991023>
    a55e:	48 8b 3d b3 68 01 00 	mov    0x168b3(%rip),%rdi        # 20e18 <moon>
    a565:	31 d2                	xor    %edx,%edx
    a567:	8d 70 fc             	lea    -0x4(%rax),%esi
    a56a:	e8 61 d6 ff ff       	callq  7bd0 <wmove@plt>
    a56f:	83 f8 ff             	cmp    $0xffffffff,%eax
    a572:	74 19                	je     a58d <print_ground+0x3d>
    a574:	8b 15 96 4d 01 00    	mov    0x14d96(%rip),%edx        # 1f310 <ground_width>
    a57a:	48 8b 35 d7 68 01 00 	mov    0x168d7(%rip),%rsi        # 20e58 <ground2>
    a581:	48 8b 3d 90 68 01 00 	mov    0x16890(%rip),%rdi        # 20e18 <moon>
    a588:	e8 13 d7 ff ff       	callq  7ca0 <waddnstr@plt>
  mvwaddnstr (moon, LINES-3, 0, ground1, ground_width);
    a58d:	8b 05 f1 4c 01 00    	mov    0x14cf1(%rip),%eax        # 1f284 <LINES@@NCURSES6_TINFO_5.0.19991023>
    a593:	48 8b 3d 7e 68 01 00 	mov    0x1687e(%rip),%rdi        # 20e18 <moon>
    a59a:	31 d2                	xor    %edx,%edx
    a59c:	8d 70 fd             	lea    -0x3(%rax),%esi
    a59f:	e8 2c d6 ff ff       	callq  7bd0 <wmove@plt>
    a5a4:	83 f8 ff             	cmp    $0xffffffff,%eax
    a5a7:	74 19                	je     a5c2 <print_ground+0x72>
    a5a9:	8b 15 61 4d 01 00    	mov    0x14d61(%rip),%edx        # 1f310 <ground_width>
    a5af:	48 8b 35 9a 68 01 00 	mov    0x1689a(%rip),%rsi        # 20e50 <ground1>
    a5b6:	48 8b 3d 5b 68 01 00 	mov    0x1685b(%rip),%rdi        # 20e18 <moon>
    a5bd:	e8 de d6 ff ff       	callq  7ca0 <waddnstr@plt>
  wnoutrefresh (moon);
    a5c2:	48 8b 3d 4f 68 01 00 	mov    0x1684f(%rip),%rdi        # 20e18 <moon>
}
    a5c9:	48 83 c4 08          	add    $0x8,%rsp
  wnoutrefresh (moon);
    a5cd:	e9 ee d4 ff ff       	jmpq   7ac0 <wnoutrefresh@plt>
    a5d2:	66 66 2e 0f 1f 84 00 	data16 nopw %cs:0x0(%rax,%rax,1)
    a5d9:	00 00 00 00 
    a5dd:	0f 1f 00             	nopl   (%rax)

000000000000a5e0 <scroll_handler>:
  wnoutrefresh (status);
}

static void
scroll_handler (game_time t, void *client_data)
{
    a5e0:	f3 0f 1e fa          	endbr64 
    a5e4:	41 54                	push   %r12
    a5e6:	48 83 ec 10          	sub    $0x10,%rsp
  if (crash_detected <= 2) {
    a5ea:	8b 05 40 68 01 00    	mov    0x16840(%rip),%eax        # 20e30 <crash_detected>
{
    a5f0:	f2 0f 11 44 24 08    	movsd  %xmm0,0x8(%rsp)
  if (crash_detected <= 2) {
    a5f6:	83 f8 02             	cmp    $0x2,%eax
    a5f9:	7e 55                	jle    a650 <scroll_handler+0x70>

    if (crash_detected)  shift_buggy (1);
  }

  if (crash_detected || crash_check ()) {
    ++crash_detected;
    a5fb:	83 c0 01             	add    $0x1,%eax
    a5fe:	89 05 2c 68 01 00    	mov    %eax,0x1682c(%rip)        # 20e30 <crash_detected>
    if (crash_detected > 35)  mode_change (crash_mode, 1);
    a604:	83 f8 23             	cmp    $0x23,%eax
    a607:	0f 8f 13 01 00 00    	jg     a720 <scroll_handler+0x140>
  }

  if (can_jump () && stakes) {
    a60d:	e8 1e 08 00 00       	callq  ae30 <can_jump>
    a612:	85 c0                	test   %eax,%eax
    a614:	74 0e                	je     a624 <scroll_handler+0x44>
    a616:	8b 3d 2c 68 01 00    	mov    0x1682c(%rip),%edi        # 20e48 <stakes>
    a61c:	85 ff                	test   %edi,%edi
    a61e:	0f 85 1c 01 00 00    	jne    a740 <scroll_handler+0x160>
    adjust_score (stakes);
    stakes = 0;
  }

  add_event (t+TICK(1), scroll_handler, NULL);
    a624:	f2 0f 10 44 24 08    	movsd  0x8(%rsp),%xmm0
    a62a:	f2 0f 58 05 66 f3 00 	addsd  0xf366(%rip),%xmm0        # 19998 <__PRETTY_FUNCTION__.4560+0x128>
    a631:	00 
    a632:	31 f6                	xor    %esi,%esi
}
    a634:	48 83 c4 10          	add    $0x10,%rsp
  add_event (t+TICK(1), scroll_handler, NULL);
    a638:	48 8d 3d a1 ff ff ff 	lea    -0x5f(%rip),%rdi        # a5e0 <scroll_handler>
}
    a63f:	41 5c                	pop    %r12
  add_event (t+TICK(1), scroll_handler, NULL);
    a641:	e9 5a 31 00 00       	jmpq   d7a0 <add_event>
    a646:	66 2e 0f 1f 84 00 00 	nopw   %cs:0x0(%rax,%rax,1)
    a64d:	00 00 00 
    scroll_meteors ();
    a650:	e8 6b 0f 00 00       	callq  b5c0 <scroll_meteors>
    memmove (bonus+1, bonus, (ground_width-1)*sizeof(int));
    a655:	8b 05 b5 4c 01 00    	mov    0x14cb5(%rip),%eax        # 1f310 <ground_width>
    a65b:	48 8b 35 fe 67 01 00 	mov    0x167fe(%rip),%rsi        # 20e60 <bonus>
    a662:	44 8d 60 ff          	lea    -0x1(%rax),%r12d
    a666:	48 8d 7e 04          	lea    0x4(%rsi),%rdi
    a66a:	4d 63 e4             	movslq %r12d,%r12
    a66d:	4a 8d 14 a5 00 00 00 	lea    0x0(,%r12,4),%rdx
    a674:	00 
}

__fortify_function void *
__NTH (memmove (void *__dest, const void *__src, size_t __len))
{
  return __builtin___memmove_chk (__dest, __src, __len, __bos0 (__dest));
    a675:	e8 f6 d4 ff ff       	callq  7b70 <memmove@plt>
    memmove (ground2+1, ground2, ground_width-1);
    a67a:	48 8b 35 d7 67 01 00 	mov    0x167d7(%rip),%rsi        # 20e58 <ground2>
    a681:	4c 89 e2             	mov    %r12,%rdx
    a684:	48 8d 7e 01          	lea    0x1(%rsi),%rdi
    a688:	e8 e3 d4 ff ff       	callq  7b70 <memmove@plt>
    level_tick (t);
    a68d:	f2 0f 10 44 24 08    	movsd  0x8(%rsp),%xmm0
    a693:	e8 78 fb ff ff       	callq  a210 <level_tick>
    print_ground ();
    a698:	e8 b3 fe ff ff       	callq  a550 <print_ground>
  mvwprintw (status, 0, car_base-32, "level: %d", current_level () + 1);
    a69d:	e8 8e fd ff ff       	callq  a430 <current_level>
    a6a2:	8b 0d 50 67 01 00    	mov    0x16750(%rip),%ecx        # 20df8 <car_base>
    a6a8:	48 8b 3d 61 67 01 00 	mov    0x16761(%rip),%rdi        # 20e10 <status>
    a6af:	31 f6                	xor    %esi,%esi
    a6b1:	44 8d 40 01          	lea    0x1(%rax),%r8d
    a6b5:	31 c0                	xor    %eax,%eax
    a6b7:	8d 51 e0             	lea    -0x20(%rcx),%edx
    a6ba:	48 8d 0d df f2 00 00 	lea    0xf2df(%rip),%rcx        # 199a0 <__PRETTY_FUNCTION__.4560+0x130>
    a6c1:	e8 4a d2 ff ff       	callq  7910 <mvwprintw@plt>
  wnoutrefresh (status);
    a6c6:	48 8b 3d 43 67 01 00 	mov    0x16743(%rip),%rdi        # 20e10 <status>
    a6cd:	e8 ee d3 ff ff       	callq  7ac0 <wnoutrefresh@plt>
    stakes += bonus[car_x + 7];
    a6d2:	48 63 15 8f 67 01 00 	movslq 0x1678f(%rip),%rdx        # 20e68 <car_x>
    a6d9:	48 8b 05 80 67 01 00 	mov    0x16780(%rip),%rax        # 20e60 <bonus>
    a6e0:	8b 44 90 1c          	mov    0x1c(%rax,%rdx,4),%eax
    a6e4:	01 05 5e 67 01 00    	add    %eax,0x1675e(%rip)        # 20e48 <stakes>
    if (crash_detected)  shift_buggy (1);
    a6ea:	8b 05 40 67 01 00    	mov    0x16740(%rip),%eax        # 20e30 <crash_detected>
    a6f0:	85 c0                	test   %eax,%eax
    a6f2:	75 64                	jne    a758 <scroll_handler+0x178>
  if (crash_detected || crash_check ()) {
    a6f4:	e8 47 07 00 00       	callq  ae40 <crash_check>
    a6f9:	85 c0                	test   %eax,%eax
    a6fb:	0f 84 0c ff ff ff    	je     a60d <scroll_handler+0x2d>
    a701:	8b 05 29 67 01 00    	mov    0x16729(%rip),%eax        # 20e30 <crash_detected>
    ++crash_detected;
    a707:	83 c0 01             	add    $0x1,%eax
    a70a:	89 05 20 67 01 00    	mov    %eax,0x16720(%rip)        # 20e30 <crash_detected>
    if (crash_detected > 35)  mode_change (crash_mode, 1);
    a710:	83 f8 23             	cmp    $0x23,%eax
    a713:	0f 8e f4 fe ff ff    	jle    a60d <scroll_handler+0x2d>
    a719:	0f 1f 80 00 00 00 00 	nopl   0x0(%rax)
    a720:	48 8b 3d 11 67 01 00 	mov    0x16711(%rip),%rdi        # 20e38 <crash_mode>
    a727:	be 01 00 00 00       	mov    $0x1,%esi
    a72c:	e8 2f e0 ff ff       	callq  8760 <mode_change>
    a731:	e9 d7 fe ff ff       	jmpq   a60d <scroll_handler+0x2d>
    a736:	66 2e 0f 1f 84 00 00 	nopw   %cs:0x0(%rax,%rax,1)
    a73d:	00 00 00 
    adjust_score (stakes);
    a740:	e8 1b eb ff ff       	callq  9260 <adjust_score>
    stakes = 0;
    a745:	c7 05 f9 66 01 00 00 	movl   $0x0,0x166f9(%rip)        # 20e48 <stakes>
    a74c:	00 00 00 
    a74f:	e9 d0 fe ff ff       	jmpq   a624 <scroll_handler+0x44>
    a754:	0f 1f 40 00          	nopl   0x0(%rax)
    if (crash_detected)  shift_buggy (1);
    a758:	bf 01 00 00 00       	mov    $0x1,%edi
    a75d:	e8 ce 05 00 00       	callq  ad30 <shift_buggy>
    a762:	8b 05 c8 66 01 00    	mov    0x166c8(%rip),%eax        # 20e30 <crash_detected>
  if (crash_detected || crash_check ()) {
    a768:	85 c0                	test   %eax,%eax
    a76a:	74 88                	je     a6f4 <scroll_handler+0x114>
    a76c:	e9 8a fe ff ff       	jmpq   a5fb <scroll_handler+0x1b>
    a771:	66 66 2e 0f 1f 84 00 	data16 nopw %cs:0x0(%rax,%rax,1)
    a778:	00 00 00 00 
    a77c:	0f 1f 40 00          	nopl   0x0(%rax)

000000000000a780 <start_scrolling>:

void
start_scrolling (double t)
{
    a780:	f3 0f 1e fa          	endbr64 
  add_event (t, scroll_handler, NULL);
    a784:	31 f6                	xor    %esi,%esi
    a786:	48 8d 3d 53 fe ff ff 	lea    -0x1ad(%rip),%rdi        # a5e0 <scroll_handler>
    a78d:	e9 0e 30 00 00       	jmpq   d7a0 <add_event>
    a792:	66 2e 0f 1f 84 00 00 	nopw   %cs:0x0(%rax,%rax,1)
    a799:	00 00 00 
    a79c:	0f 1f 40 00          	nopl   0x0(%rax)

000000000000a7a0 <wheel_handler>:

static int wheel_x, wheel_y;

static void
wheel_handler (game_time t, void *client_data)
{
    a7a0:	f3 0f 1e fa          	endbr64 
    a7a4:	53                   	push   %rbx
    a7a5:	bb 01 00 00 00       	mov    $0x1,%ebx
    a7aa:	48 83 ec 10          	sub    $0x10,%rsp
  int  wheel_crash;

  wheel_crash = (wheel_x<car_x && wheel_y==LINES-5 && ground2[wheel_x]==' ');
    a7ae:	8b 15 68 4b 01 00    	mov    0x14b68(%rip),%edx        # 1f31c <wheel_x>
    a7b4:	8b 05 ae 66 01 00    	mov    0x166ae(%rip),%eax        # 20e68 <car_x>
    a7ba:	8b 0d c4 4a 01 00    	mov    0x14ac4(%rip),%ecx        # 1f284 <LINES@@NCURSES6_TINFO_5.0.19991023>
{
    a7c0:	f2 0f 11 44 24 08    	movsd  %xmm0,0x8(%rsp)
  wheel_crash = (wheel_x<car_x && wheel_y==LINES-5 && ground2[wheel_x]==' ');
    a7c6:	39 c2                	cmp    %eax,%edx
    a7c8:	7d 38                	jge    a802 <wheel_handler+0x62>
    a7ca:	8b 35 48 4b 01 00    	mov    0x14b48(%rip),%esi        # 1f318 <wheel_y>
    a7d0:	83 e9 05             	sub    $0x5,%ecx
    a7d3:	39 f1                	cmp    %esi,%ecx
    a7d5:	0f 84 e5 00 00 00    	je     a8c0 <wheel_handler+0x120>
  if (wheel_x < car_x)  mvwaddch (moon, wheel_y, wheel_x, ' ');
    a7db:	48 8b 3d 36 66 01 00 	mov    0x16636(%rip),%rdi        # 20e18 <moon>
    a7e2:	e8 e9 d3 ff ff       	callq  7bd0 <wmove@plt>
    a7e7:	83 f8 ff             	cmp    $0xffffffff,%eax
    a7ea:	0f 85 f0 00 00 00    	jne    a8e0 <wheel_handler+0x140>
    a7f0:	8b 15 26 4b 01 00    	mov    0x14b26(%rip),%edx        # 1f31c <wheel_x>
    a7f6:	8b 05 6c 66 01 00    	mov    0x1666c(%rip),%eax        # 20e68 <car_x>
    a7fc:	8b 0d 82 4a 01 00    	mov    0x14a82(%rip),%ecx        # 1f284 <LINES@@NCURSES6_TINFO_5.0.19991023>
  wheel_x -= 1;
    a802:	83 ea 01             	sub    $0x1,%edx
  switch (car_x - wheel_x) {
    a805:	29 d0                	sub    %edx,%eax
  wheel_x -= 1;
    a807:	89 15 0f 4b 01 00    	mov    %edx,0x14b0f(%rip)        # 1f31c <wheel_x>
  switch (car_x - wheel_x) {
    a80d:	83 f8 04             	cmp    $0x4,%eax
    a810:	7f 36                	jg     a848 <wheel_handler+0xa8>
    a812:	83 f8 01             	cmp    $0x1,%eax
    a815:	7f 49                	jg     a860 <wheel_handler+0xc0>
    a817:	74 3c                	je     a855 <wheel_handler+0xb5>
  case 3:
  case 4:
    wheel_y = LINES - 7;
    break;
  default:
    wheel_y = LINES - 5;
    a819:	83 e9 05             	sub    $0x5,%ecx
    a81c:	89 0d f6 4a 01 00    	mov    %ecx,0x14af6(%rip)        # 1f318 <wheel_y>
    break;
  }
  if (wheel_x >= 0 && ! wheel_crash) {
    a822:	48 8b 3d ef 65 01 00 	mov    0x165ef(%rip),%rdi        # 20e18 <moon>
    a829:	85 d2                	test   %edx,%edx
    a82b:	78 04                	js     a831 <wheel_handler+0x91>
    a82d:	84 db                	test   %bl,%bl
    a82f:	75 3f                	jne    a870 <wheel_handler+0xd0>
    mvwaddch (moon, wheel_y, wheel_x, 'o');
    add_event (t+TICK(2.3), wheel_handler, NULL);
  } else {
    crash_detected = 1000;
    a831:	c7 05 f5 65 01 00 e8 	movl   $0x3e8,0x165f5(%rip)        # 20e30 <crash_detected>
    a838:	03 00 00 
  }
  wnoutrefresh (moon);
}
    a83b:	48 83 c4 10          	add    $0x10,%rsp
    a83f:	5b                   	pop    %rbx
  wnoutrefresh (moon);
    a840:	e9 7b d2 ff ff       	jmpq   7ac0 <wnoutrefresh@plt>
    a845:	0f 1f 00             	nopl   (%rax)
  switch (car_x - wheel_x) {
    a848:	83 f8 05             	cmp    $0x5,%eax
    a84b:	74 08                	je     a855 <wheel_handler+0xb5>
    a84d:	83 e8 07             	sub    $0x7,%eax
    a850:	83 f8 02             	cmp    $0x2,%eax
    a853:	77 c4                	ja     a819 <wheel_handler+0x79>
    wheel_y = LINES - 6;
    a855:	83 e9 06             	sub    $0x6,%ecx
    a858:	89 0d ba 4a 01 00    	mov    %ecx,0x14aba(%rip)        # 1f318 <wheel_y>
    break;
    a85e:	eb c2                	jmp    a822 <wheel_handler+0x82>
    wheel_y = LINES - 7;
    a860:	83 e9 07             	sub    $0x7,%ecx
    a863:	89 0d af 4a 01 00    	mov    %ecx,0x14aaf(%rip)        # 1f318 <wheel_y>
    break;
    a869:	eb b7                	jmp    a822 <wheel_handler+0x82>
    a86b:	0f 1f 44 00 00       	nopl   0x0(%rax,%rax,1)
    mvwaddch (moon, wheel_y, wheel_x, 'o');
    a870:	8b 35 a2 4a 01 00    	mov    0x14aa2(%rip),%esi        # 1f318 <wheel_y>
    a876:	e8 55 d3 ff ff       	callq  7bd0 <wmove@plt>
    a87b:	83 f8 ff             	cmp    $0xffffffff,%eax
    a87e:	74 11                	je     a891 <wheel_handler+0xf1>
    a880:	48 8b 3d 91 65 01 00 	mov    0x16591(%rip),%rdi        # 20e18 <moon>
    a887:	be 6f 00 00 00       	mov    $0x6f,%esi
    a88c:	e8 5f d3 ff ff       	callq  7bf0 <waddch@plt>
    add_event (t+TICK(2.3), wheel_handler, NULL);
    a891:	f2 0f 10 44 24 08    	movsd  0x8(%rsp),%xmm0
    a897:	f2 0f 58 05 d9 f1 00 	addsd  0xf1d9(%rip),%xmm0        # 19a78 <__PRETTY_FUNCTION__.4499+0xc>
    a89e:	00 
    a89f:	48 8d 3d fa fe ff ff 	lea    -0x106(%rip),%rdi        # a7a0 <wheel_handler>
    a8a6:	31 f6                	xor    %esi,%esi
    a8a8:	e8 f3 2e 00 00       	callq  d7a0 <add_event>
    a8ad:	48 8b 3d 64 65 01 00 	mov    0x16564(%rip),%rdi        # 20e18 <moon>
}
    a8b4:	48 83 c4 10          	add    $0x10,%rsp
    a8b8:	5b                   	pop    %rbx
  wnoutrefresh (moon);
    a8b9:	e9 02 d2 ff ff       	jmpq   7ac0 <wnoutrefresh@plt>
    a8be:	66 90                	xchg   %ax,%ax
  wheel_crash = (wheel_x<car_x && wheel_y==LINES-5 && ground2[wheel_x]==' ');
    a8c0:	48 8b 0d 91 65 01 00 	mov    0x16591(%rip),%rcx        # 20e58 <ground2>
    a8c7:	48 63 c2             	movslq %edx,%rax
    a8ca:	80 3c 01 20          	cmpb   $0x20,(%rcx,%rax,1)
    a8ce:	0f 95 c3             	setne  %bl
    a8d1:	e9 05 ff ff ff       	jmpq   a7db <wheel_handler+0x3b>
    a8d6:	66 2e 0f 1f 84 00 00 	nopw   %cs:0x0(%rax,%rax,1)
    a8dd:	00 00 00 
  if (wheel_x < car_x)  mvwaddch (moon, wheel_y, wheel_x, ' ');
    a8e0:	48 8b 3d 31 65 01 00 	mov    0x16531(%rip),%rdi        # 20e18 <moon>
    a8e7:	be 20 00 00 00       	mov    $0x20,%esi
    a8ec:	e8 ff d2 ff ff       	callq  7bf0 <waddch@plt>
    a8f1:	e9 fa fe ff ff       	jmpq   a7f0 <wheel_handler+0x50>
    a8f6:	66 2e 0f 1f 84 00 00 	nopw   %cs:0x0(%rax,%rax,1)
    a8fd:	00 00 00 

000000000000a900 <start_wheel>:

static void
start_wheel (void)
{
    a900:	48 83 ec 08          	sub    $0x8,%rsp
  wheel_x = car_x;
    a904:	8b 05 5e 65 01 00    	mov    0x1655e(%rip),%eax        # 20e68 <car_x>
    a90a:	89 05 0c 4a 01 00    	mov    %eax,0x14a0c(%rip)        # 1f31c <wheel_x>
  add_event (current_time()+TICK(0.5), wheel_handler, NULL);
    a910:	e8 1b 2d 00 00       	callq  d630 <current_time>
    a915:	f2 0f 58 05 63 f1 00 	addsd  0xf163(%rip),%xmm0        # 19a80 <__PRETTY_FUNCTION__.4499+0x14>
    a91c:	00 
    a91d:	31 f6                	xor    %esi,%esi
    a91f:	48 8d 3d 7a fe ff ff 	lea    -0x186(%rip),%rdi        # a7a0 <wheel_handler>
}
    a926:	48 83 c4 08          	add    $0x8,%rsp
  add_event (current_time()+TICK(0.5), wheel_handler, NULL);
    a92a:	e9 71 2e 00 00       	jmpq   d7a0 <add_event>
    a92f:	90                   	nop

000000000000a930 <initialise_buggy>:
{
    a930:	f3 0f 1e fa          	endbr64 
    a934:	55                   	push   %rbp
  state = sz_empty;
    a935:	48 8d 05 a4 48 01 00 	lea    0x148a4(%rip),%rax        # 1f1e0 <sz_empty>
  for (y=5; y<9; ++y)  mvwaddstr (moon, LINES-y, car_x, "       ");
    a93c:	48 8d 2d 67 f0 00 00 	lea    0xf067(%rip),%rbp        # 199aa <__PRETTY_FUNCTION__.4560+0x13a>
{
    a943:	53                   	push   %rbx
  for (y=5; y<9; ++y)  mvwaddstr (moon, LINES-y, car_x, "       ");
    a944:	bb 05 00 00 00       	mov    $0x5,%ebx
{
    a949:	48 83 ec 08          	sub    $0x8,%rsp
  state = sz_empty;
    a94d:	48 89 05 d4 49 01 00 	mov    %rax,0x149d4(%rip)        # 1f328 <state>
  for (y=5; y<9; ++y)  mvwaddstr (moon, LINES-y, car_x, "       ");
    a954:	8b 35 2a 49 01 00    	mov    0x1492a(%rip),%esi        # 1f284 <LINES@@NCURSES6_TINFO_5.0.19991023>
    a95a:	8b 15 08 65 01 00    	mov    0x16508(%rip),%edx        # 20e68 <car_x>
    a960:	48 8b 3d b1 64 01 00 	mov    0x164b1(%rip),%rdi        # 20e18 <moon>
    a967:	29 de                	sub    %ebx,%esi
    a969:	e8 62 d2 ff ff       	callq  7bd0 <wmove@plt>
    a96e:	83 f8 ff             	cmp    $0xffffffff,%eax
    a971:	74 14                	je     a987 <initialise_buggy+0x57>
    a973:	48 8b 3d 9e 64 01 00 	mov    0x1649e(%rip),%rdi        # 20e18 <moon>
    a97a:	ba ff ff ff ff       	mov    $0xffffffff,%edx
    a97f:	48 89 ee             	mov    %rbp,%rsi
    a982:	e8 19 d3 ff ff       	callq  7ca0 <waddnstr@plt>
    a987:	83 c3 01             	add    $0x1,%ebx
    a98a:	83 fb 09             	cmp    $0x9,%ebx
    a98d:	75 c5                	jne    a954 <initialise_buggy+0x24>
  car_x = car_base;
    a98f:	8b 05 63 64 01 00    	mov    0x16463(%rip),%eax        # 20df8 <car_base>
  wnoutrefresh (moon);
    a995:	48 8b 3d 7c 64 01 00 	mov    0x1647c(%rip),%rdi        # 20e18 <moon>
  car_x = car_base;
    a99c:	89 05 c6 64 01 00    	mov    %eax,0x164c6(%rip)        # 20e68 <car_x>
  car_y = state->y;
    a9a2:	48 8b 05 7f 49 01 00 	mov    0x1497f(%rip),%rax        # 1f328 <state>
    a9a9:	8b 40 04             	mov    0x4(%rax),%eax
    a9ac:	89 05 ba 64 01 00    	mov    %eax,0x164ba(%rip)        # 20e6c <car_y>
}
    a9b2:	48 83 c4 08          	add    $0x8,%rsp
    a9b6:	5b                   	pop    %rbx
    a9b7:	5d                   	pop    %rbp
  wnoutrefresh (moon);
    a9b8:	e9 03 d1 ff ff       	jmpq   7ac0 <wnoutrefresh@plt>
    a9bd:	0f 1f 00             	nopl   (%rax)

000000000000a9c0 <print_buggy>:
{
    a9c0:	f3 0f 1e fa          	endbr64 
    a9c4:	55                   	push   %rbp
    a9c5:	53                   	push   %rbx
    a9c6:	48 83 ec 08          	sub    $0x8,%rsp
    a9ca:	8b 15 98 64 01 00    	mov    0x16498(%rip),%edx        # 20e68 <car_x>
  enum car_state  n = state->n;
    a9d0:	48 8b 05 51 49 01 00 	mov    0x14951(%rip),%rax        # 1f328 <state>
    a9d7:	8b 35 a7 48 01 00    	mov    0x148a7(%rip),%esi        # 1f284 <LINES@@NCURSES6_TINFO_5.0.19991023>
    a9dd:	48 8b 3d 34 64 01 00 	mov    0x16434(%rip),%rdi        # 20e18 <moon>
    a9e4:	8b 28                	mov    (%rax),%ebp
  int  y = state->y;
    a9e6:	8b 58 04             	mov    0x4(%rax),%ebx
  if (y < car_y) {
    a9e9:	8b 05 7d 64 01 00    	mov    0x1647d(%rip),%eax        # 20e6c <car_y>
    a9ef:	39 d8                	cmp    %ebx,%eax
    a9f1:	0f 8f f1 01 00 00    	jg     abe8 <print_buggy+0x228>
  } else if (y > car_y) {
    a9f7:	0f 8c d3 00 00 00    	jl     aad0 <print_buggy+0x110>
  car_y = y;
    a9fd:	29 de                	sub    %ebx,%esi
    a9ff:	89 1d 67 64 01 00    	mov    %ebx,0x16467(%rip)        # 20e6c <car_y>
  if (n==car_NORMAL)  {
    aa05:	83 ee 01             	sub    $0x1,%esi
    aa08:	85 ed                	test   %ebp,%ebp
    aa0a:	0f 85 f6 00 00 00    	jne    ab06 <print_buggy+0x146>
    mvwaddstr (moon, LINES-y-1, car_x, image[n+nextG][0]);
    aa10:	e8 bb d1 ff ff       	callq  7bd0 <wmove@plt>
    aa15:	83 f8 ff             	cmp    $0xffffffff,%eax
    aa18:	0f 85 82 00 00 00    	jne    aaa0 <print_buggy+0xe0>
    mvwaddstr (moon, LINES-y, car_x, image[n+nextG][1]);
    aa1e:	8b 35 60 48 01 00    	mov    0x14860(%rip),%esi        # 1f284 <LINES@@NCURSES6_TINFO_5.0.19991023>
    aa24:	8b 15 3e 64 01 00    	mov    0x1643e(%rip),%edx        # 20e68 <car_x>
    aa2a:	48 8b 3d e7 63 01 00 	mov    0x163e7(%rip),%rdi        # 20e18 <moon>
    aa31:	29 de                	sub    %ebx,%esi
    aa33:	e8 98 d1 ff ff       	callq  7bd0 <wmove@plt>
    aa38:	83 f8 ff             	cmp    $0xffffffff,%eax
    aa3b:	74 27                	je     aa64 <print_buggy+0xa4>
    aa3d:	8b 05 dd 48 01 00    	mov    0x148dd(%rip),%eax        # 1f320 <nextG>
    aa43:	48 8d 0d b6 3e 01 00 	lea    0x13eb6(%rip),%rcx        # 1e900 <image>
    aa4a:	ba ff ff ff ff       	mov    $0xffffffff,%edx
    aa4f:	48 8b 3d c2 63 01 00 	mov    0x163c2(%rip),%rdi        # 20e18 <moon>
    aa56:	48 c1 e0 04          	shl    $0x4,%rax
    aa5a:	48 8b 74 01 08       	mov    0x8(%rcx,%rax,1),%rsi
    aa5f:	e8 3c d2 ff ff       	callq  7ca0 <waddnstr@plt>
  nextG++; if (nextG>3) nextG=0;
    aa64:	8b 05 b6 48 01 00    	mov    0x148b6(%rip),%eax        # 1f320 <nextG>
    aa6a:	48 8b 3d a7 63 01 00 	mov    0x163a7(%rip),%rdi        # 20e18 <moon>
    aa71:	83 c0 01             	add    $0x1,%eax
    aa74:	89 05 a6 48 01 00    	mov    %eax,0x148a6(%rip)        # 1f320 <nextG>
    aa7a:	83 f8 03             	cmp    $0x3,%eax
    aa7d:	7e 13                	jle    aa92 <print_buggy+0xd2>
    aa7f:	c7 05 97 48 01 00 00 	movl   $0x0,0x14897(%rip)        # 1f320 <nextG>
    aa86:	00 00 00 
  if (n == car_BROKEN) {
    aa89:	83 fd 08             	cmp    $0x8,%ebp
    aa8c:	0f 84 0a 01 00 00    	je     ab9c <print_buggy+0x1dc>
}
    aa92:	48 83 c4 08          	add    $0x8,%rsp
    aa96:	5b                   	pop    %rbx
    aa97:	5d                   	pop    %rbp
  wnoutrefresh (moon);
    aa98:	e9 23 d0 ff ff       	jmpq   7ac0 <wnoutrefresh@plt>
    aa9d:	0f 1f 00             	nopl   (%rax)
    mvwaddstr (moon, LINES-y-1, car_x, image[n+nextG][0]);
    aaa0:	8b 05 7a 48 01 00    	mov    0x1487a(%rip),%eax        # 1f320 <nextG>
    aaa6:	48 8d 0d 53 3e 01 00 	lea    0x13e53(%rip),%rcx        # 1e900 <image>
    aaad:	ba ff ff ff ff       	mov    $0xffffffff,%edx
    aab2:	48 8b 3d 5f 63 01 00 	mov    0x1635f(%rip),%rdi        # 20e18 <moon>
    aab9:	48 c1 e0 04          	shl    $0x4,%rax
    aabd:	48 8b 34 01          	mov    (%rcx,%rax,1),%rsi
    aac1:	e8 da d1 ff ff       	callq  7ca0 <waddnstr@plt>
    aac6:	e9 53 ff ff ff       	jmpq   aa1e <print_buggy+0x5e>
    aacb:	0f 1f 44 00 00       	nopl   0x0(%rax,%rax,1)
    mvwaddstr (moon, LINES-car_y, car_x, "       ");
    aad0:	29 c6                	sub    %eax,%esi
    aad2:	e8 f9 d0 ff ff       	callq  7bd0 <wmove@plt>
    aad7:	83 f8 ff             	cmp    $0xffffffff,%eax
    aada:	0f 85 1b 01 00 00    	jne    abfb <print_buggy+0x23b>
    aae0:	8b 35 9e 47 01 00    	mov    0x1479e(%rip),%esi        # 1f284 <LINES@@NCURSES6_TINFO_5.0.19991023>
  car_y = y;
    aae6:	89 1d 80 63 01 00    	mov    %ebx,0x16380(%rip)        # 20e6c <car_y>
    aaec:	8b 15 76 63 01 00    	mov    0x16376(%rip),%edx        # 20e68 <car_x>
    aaf2:	48 8b 3d 1f 63 01 00 	mov    0x1631f(%rip),%rdi        # 20e18 <moon>
  if (n==car_NORMAL)  {
    aaf9:	29 de                	sub    %ebx,%esi
    aafb:	83 ee 01             	sub    $0x1,%esi
    aafe:	85 ed                	test   %ebp,%ebp
    ab00:	0f 84 0a ff ff ff    	je     aa10 <print_buggy+0x50>
    mvwaddstr (moon, LINES-y-1, car_x, image[n][0]);
    ab06:	e8 c5 d0 ff ff       	callq  7bd0 <wmove@plt>
    ab0b:	83 f8 ff             	cmp    $0xffffffff,%eax
    ab0e:	74 22                	je     ab32 <print_buggy+0x172>
    ab10:	89 e8                	mov    %ebp,%eax
    ab12:	48 8d 0d e7 3d 01 00 	lea    0x13de7(%rip),%rcx        # 1e900 <image>
    ab19:	ba ff ff ff ff       	mov    $0xffffffff,%edx
    ab1e:	48 8b 3d f3 62 01 00 	mov    0x162f3(%rip),%rdi        # 20e18 <moon>
    ab25:	48 c1 e0 04          	shl    $0x4,%rax
    ab29:	48 8b 34 01          	mov    (%rcx,%rax,1),%rsi
    ab2d:	e8 6e d1 ff ff       	callq  7ca0 <waddnstr@plt>
    mvwaddstr (moon, LINES-y, car_x, image[n][1]);
    ab32:	8b 35 4c 47 01 00    	mov    0x1474c(%rip),%esi        # 1f284 <LINES@@NCURSES6_TINFO_5.0.19991023>
    ab38:	8b 15 2a 63 01 00    	mov    0x1632a(%rip),%edx        # 20e68 <car_x>
    ab3e:	48 8b 3d d3 62 01 00 	mov    0x162d3(%rip),%rdi        # 20e18 <moon>
    ab45:	29 de                	sub    %ebx,%esi
    ab47:	e8 84 d0 ff ff       	callq  7bd0 <wmove@plt>
    ab4c:	83 f8 ff             	cmp    $0xffffffff,%eax
    ab4f:	74 23                	je     ab74 <print_buggy+0x1b4>
    ab51:	89 e8                	mov    %ebp,%eax
    ab53:	48 8d 0d a6 3d 01 00 	lea    0x13da6(%rip),%rcx        # 1e900 <image>
    ab5a:	ba ff ff ff ff       	mov    $0xffffffff,%edx
    ab5f:	48 8b 3d b2 62 01 00 	mov    0x162b2(%rip),%rdi        # 20e18 <moon>
    ab66:	48 c1 e0 04          	shl    $0x4,%rax
    ab6a:	48 8b 74 01 08       	mov    0x8(%rcx,%rax,1),%rsi
    ab6f:	e8 2c d1 ff ff       	callq  7ca0 <waddnstr@plt>
  nextG++; if (nextG>3) nextG=0;
    ab74:	8b 05 a6 47 01 00    	mov    0x147a6(%rip),%eax        # 1f320 <nextG>
    ab7a:	48 8b 3d 97 62 01 00 	mov    0x16297(%rip),%rdi        # 20e18 <moon>
    ab81:	83 c0 01             	add    $0x1,%eax
    ab84:	89 05 96 47 01 00    	mov    %eax,0x14796(%rip)        # 1f320 <nextG>
    ab8a:	83 f8 03             	cmp    $0x3,%eax
    ab8d:	0f 8f ec fe ff ff    	jg     aa7f <print_buggy+0xbf>
  if (n == car_BROKEN) {
    ab93:	83 fd 08             	cmp    $0x8,%ebp
    ab96:	0f 85 f6 fe ff ff    	jne    aa92 <print_buggy+0xd2>
    if (ground2[car_x+1] == ' ')  mvwaddch (moon, LINES-4, car_x+1, 'o');
    ab9c:	48 63 05 c5 62 01 00 	movslq 0x162c5(%rip),%rax        # 20e68 <car_x>
    aba3:	48 8b 0d ae 62 01 00 	mov    0x162ae(%rip),%rcx        # 20e58 <ground2>
    abaa:	80 7c 01 01 20       	cmpb   $0x20,0x1(%rcx,%rax,1)
    abaf:	48 89 c2             	mov    %rax,%rdx
    abb2:	74 6c                	je     ac20 <print_buggy+0x260>
    if (ground2[car_x+5] == ' ')  mvwaddch (moon, LINES-4, car_x+5, 'o');
    abb4:	80 7c 01 05 20       	cmpb   $0x20,0x5(%rcx,%rax,1)
    abb9:	0f 85 d3 fe ff ff    	jne    aa92 <print_buggy+0xd2>
    abbf:	8b 05 bf 46 01 00    	mov    0x146bf(%rip),%eax        # 1f284 <LINES@@NCURSES6_TINFO_5.0.19991023>
    abc5:	83 c2 05             	add    $0x5,%edx
    abc8:	8d 70 fc             	lea    -0x4(%rax),%esi
    abcb:	e8 00 d0 ff ff       	callq  7bd0 <wmove@plt>
    abd0:	83 f8 ff             	cmp    $0xffffffff,%eax
    abd3:	0f 85 97 00 00 00    	jne    ac70 <print_buggy+0x2b0>
    abd9:	48 8b 3d 38 62 01 00 	mov    0x16238(%rip),%rdi        # 20e18 <moon>
    abe0:	e9 ad fe ff ff       	jmpq   aa92 <print_buggy+0xd2>
    abe5:	0f 1f 00             	nopl   (%rax)
    mvwaddstr (moon, LINES-car_y-1, car_x, "       ");
    abe8:	29 c6                	sub    %eax,%esi
    abea:	83 ee 01             	sub    $0x1,%esi
    abed:	e8 de cf ff ff       	callq  7bd0 <wmove@plt>
    abf2:	83 f8 ff             	cmp    $0xffffffff,%eax
    abf5:	0f 84 e5 fe ff ff    	je     aae0 <print_buggy+0x120>
    mvwaddstr (moon, LINES-car_y, car_x, "       ");
    abfb:	48 8b 3d 16 62 01 00 	mov    0x16216(%rip),%rdi        # 20e18 <moon>
    ac02:	ba ff ff ff ff       	mov    $0xffffffff,%edx
    ac07:	48 8d 35 9c ed 00 00 	lea    0xed9c(%rip),%rsi        # 199aa <__PRETTY_FUNCTION__.4560+0x13a>
    ac0e:	e8 8d d0 ff ff       	callq  7ca0 <waddnstr@plt>
    ac13:	e9 c8 fe ff ff       	jmpq   aae0 <print_buggy+0x120>
    ac18:	0f 1f 84 00 00 00 00 	nopl   0x0(%rax,%rax,1)
    ac1f:	00 
    if (ground2[car_x+1] == ' ')  mvwaddch (moon, LINES-4, car_x+1, 'o');
    ac20:	8b 05 5e 46 01 00    	mov    0x1465e(%rip),%eax        # 1f284 <LINES@@NCURSES6_TINFO_5.0.19991023>
    ac26:	83 c2 01             	add    $0x1,%edx
    ac29:	8d 70 fc             	lea    -0x4(%rax),%esi
    ac2c:	e8 9f cf ff ff       	callq  7bd0 <wmove@plt>
    ac31:	83 f8 ff             	cmp    $0xffffffff,%eax
    ac34:	75 22                	jne    ac58 <print_buggy+0x298>
    ac36:	48 63 05 2b 62 01 00 	movslq 0x1622b(%rip),%rax        # 20e68 <car_x>
    ac3d:	48 8b 0d 14 62 01 00 	mov    0x16214(%rip),%rcx        # 20e58 <ground2>
    ac44:	48 8b 3d cd 61 01 00 	mov    0x161cd(%rip),%rdi        # 20e18 <moon>
    ac4b:	48 89 c2             	mov    %rax,%rdx
    ac4e:	e9 61 ff ff ff       	jmpq   abb4 <print_buggy+0x1f4>
    ac53:	0f 1f 44 00 00       	nopl   0x0(%rax,%rax,1)
    ac58:	48 8b 3d b9 61 01 00 	mov    0x161b9(%rip),%rdi        # 20e18 <moon>
    ac5f:	be 6f 00 00 00       	mov    $0x6f,%esi
    ac64:	e8 87 cf ff ff       	callq  7bf0 <waddch@plt>
    ac69:	eb cb                	jmp    ac36 <print_buggy+0x276>
    ac6b:	0f 1f 44 00 00       	nopl   0x0(%rax,%rax,1)
    if (ground2[car_x+5] == ' ')  mvwaddch (moon, LINES-4, car_x+5, 'o');
    ac70:	48 8b 3d a1 61 01 00 	mov    0x161a1(%rip),%rdi        # 20e18 <moon>
    ac77:	be 6f 00 00 00       	mov    $0x6f,%esi
    ac7c:	e8 6f cf ff ff       	callq  7bf0 <waddch@plt>
    ac81:	e9 53 ff ff ff       	jmpq   abd9 <print_buggy+0x219>
    ac86:	66 2e 0f 1f 84 00 00 	nopw   %cs:0x0(%rax,%rax,1)
    ac8d:	00 00 00 

000000000000ac90 <jump_handler>:
 * handle the jumps
 */

static void
jump_handler (game_time t, void *client_data)
{
    ac90:	f3 0f 1e fa          	endbr64 
    ac94:	48 83 ec 18          	sub    $0x18,%rsp
  state = client_data;
  if (car_y > 5 && state->y == 5) {
    ac98:	83 3d cd 61 01 00 05 	cmpl   $0x5,0x161cd(%rip)        # 20e6c <car_y>
  state = client_data;
    ac9f:	48 89 3d 82 46 01 00 	mov    %rdi,0x14682(%rip)        # 1f328 <state>
{
    aca6:	f2 0f 11 44 24 08    	movsd  %xmm0,0x8(%rsp)
  if (car_y > 5 && state->y == 5) {
    acac:	7e 06                	jle    acb4 <jump_handler+0x24>
    acae:	83 7f 04 05          	cmpl   $0x5,0x4(%rdi)
    acb2:	74 44                	je     acf8 <jump_handler+0x68>
      state = sz_sit;
      start_wheel ();
      crash_detected = 1;
    }
  }
  print_buggy ();
    acb4:	e8 07 fd ff ff       	callq  a9c0 <print_buggy>
  if (state->dt >= -0.5) {
    acb9:	48 8b 35 68 46 01 00 	mov    0x14668(%rip),%rsi        # 1f328 <state>
    acc0:	f2 0f 10 46 08       	movsd  0x8(%rsi),%xmm0
    acc5:	66 0f 2f 05 bb ed 00 	comisd 0xedbb(%rip),%xmm0        # 19a88 <__PRETTY_FUNCTION__.4499+0x1c>
    accc:	00 
    accd:	73 09                	jae    acd8 <jump_handler+0x48>
    add_event (t+state->dt, jump_handler, state+1);
  }
}
    accf:	48 83 c4 18          	add    $0x18,%rsp
    acd3:	c3                   	retq   
    acd4:	0f 1f 40 00          	nopl   0x0(%rax)
    add_event (t+state->dt, jump_handler, state+1);
    acd8:	f2 0f 58 44 24 08    	addsd  0x8(%rsp),%xmm0
    acde:	48 83 c6 18          	add    $0x18,%rsi
}
    ace2:	48 83 c4 18          	add    $0x18,%rsp
    add_event (t+state->dt, jump_handler, state+1);
    ace6:	48 8d 3d a3 ff ff ff 	lea    -0x5d(%rip),%rdi        # ac90 <jump_handler>
    aced:	e9 ae 2a 00 00       	jmpq   d7a0 <add_event>
    acf2:	66 0f 1f 44 00 00    	nopw   0x0(%rax,%rax,1)
    if (meteor_car_hit (car_x, car_x+7)) {
    acf8:	8b 3d 6a 61 01 00    	mov    0x1616a(%rip),%edi        # 20e68 <car_x>
    acfe:	8d 77 07             	lea    0x7(%rdi),%esi
    ad01:	e8 3a 0d 00 00       	callq  ba40 <meteor_car_hit>
    ad06:	85 c0                	test   %eax,%eax
    ad08:	74 aa                	je     acb4 <jump_handler+0x24>
      state = sz_sit;
    ad0a:	48 8d 05 8f 43 01 00 	lea    0x1438f(%rip),%rax        # 1f0a0 <sz_sit>
    ad11:	48 89 05 10 46 01 00 	mov    %rax,0x14610(%rip)        # 1f328 <state>
      start_wheel ();
    ad18:	e8 e3 fb ff ff       	callq  a900 <start_wheel>
      crash_detected = 1;
    ad1d:	c7 05 09 61 01 00 01 	movl   $0x1,0x16109(%rip)        # 20e30 <crash_detected>
    ad24:	00 00 00 
    ad27:	eb 8b                	jmp    acb4 <jump_handler+0x24>
    ad29:	0f 1f 80 00 00 00 00 	nopl   0x0(%rax)

000000000000ad30 <shift_buggy>:
{
    ad30:	f3 0f 1e fa          	endbr64 
  mvwaddstr (moon, LINES-car_y-1, car_x, "       ");
    ad34:	8b 35 4a 45 01 00    	mov    0x1454a(%rip),%esi        # 1f284 <LINES@@NCURSES6_TINFO_5.0.19991023>
    ad3a:	8b 15 28 61 01 00    	mov    0x16128(%rip),%edx        # 20e68 <car_x>
{
    ad40:	53                   	push   %rbx
    ad41:	89 fb                	mov    %edi,%ebx
  mvwaddstr (moon, LINES-car_y-1, car_x, "       ");
    ad43:	2b 35 23 61 01 00    	sub    0x16123(%rip),%esi        # 20e6c <car_y>
    ad49:	48 8b 3d c8 60 01 00 	mov    0x160c8(%rip),%rdi        # 20e18 <moon>
    ad50:	83 ee 01             	sub    $0x1,%esi
    ad53:	e8 78 ce ff ff       	callq  7bd0 <wmove@plt>
    ad58:	83 f8 ff             	cmp    $0xffffffff,%eax
    ad5b:	74 18                	je     ad75 <shift_buggy+0x45>
    ad5d:	48 8b 3d b4 60 01 00 	mov    0x160b4(%rip),%rdi        # 20e18 <moon>
    ad64:	ba ff ff ff ff       	mov    $0xffffffff,%edx
    ad69:	48 8d 35 3a ec 00 00 	lea    0xec3a(%rip),%rsi        # 199aa <__PRETTY_FUNCTION__.4560+0x13a>
    ad70:	e8 2b cf ff ff       	callq  7ca0 <waddnstr@plt>
  mvwaddstr (moon, LINES-car_y, car_x, "       ");
    ad75:	8b 15 ed 60 01 00    	mov    0x160ed(%rip),%edx        # 20e68 <car_x>
    ad7b:	48 8b 3d 96 60 01 00 	mov    0x16096(%rip),%rdi        # 20e18 <moon>
    ad82:	8b 35 fc 44 01 00    	mov    0x144fc(%rip),%esi        # 1f284 <LINES@@NCURSES6_TINFO_5.0.19991023>
    ad88:	2b 35 de 60 01 00    	sub    0x160de(%rip),%esi        # 20e6c <car_y>
    ad8e:	e8 3d ce ff ff       	callq  7bd0 <wmove@plt>
    ad93:	83 f8 ff             	cmp    $0xffffffff,%eax
    ad96:	74 18                	je     adb0 <shift_buggy+0x80>
    ad98:	48 8b 3d 79 60 01 00 	mov    0x16079(%rip),%rdi        # 20e18 <moon>
    ad9f:	ba ff ff ff ff       	mov    $0xffffffff,%edx
    ada4:	48 8d 35 ff eb 00 00 	lea    0xebff(%rip),%rsi        # 199aa <__PRETTY_FUNCTION__.4560+0x13a>
    adab:	e8 f0 ce ff ff       	callq  7ca0 <waddnstr@plt>
  car_x += dx;
    adb0:	01 1d b2 60 01 00    	add    %ebx,0x160b2(%rip)        # 20e68 <car_x>
}
    adb6:	5b                   	pop    %rbx
  print_buggy ();
    adb7:	e9 04 fc ff ff       	jmpq   a9c0 <print_buggy>
    adbc:	0f 1f 40 00          	nopl   0x0(%rax)

000000000000adc0 <jump>:

void
jump (game_time t)
{
    adc0:	f3 0f 1e fa          	endbr64 
    adc4:	48 83 ec 18          	sub    $0x18,%rsp
  assert (state->has_ground);
    adc8:	48 8b 05 59 45 01 00 	mov    0x14559(%rip),%rax        # 1f328 <state>
    adcf:	8b 40 10             	mov    0x10(%rax),%eax
    add2:	85 c0                	test   %eax,%eax
    add4:	74 2f                	je     ae05 <jump+0x45>
  remove_event (jump_handler);	/* only one jump at a time */
    add6:	48 8d 3d b3 fe ff ff 	lea    -0x14d(%rip),%rdi        # ac90 <jump_handler>
    addd:	f2 0f 11 44 24 08    	movsd  %xmm0,0x8(%rsp)
    ade3:	e8 38 2a 00 00       	callq  d820 <remove_event>
  add_event (t, jump_handler, sz_jump);
    ade8:	f2 0f 10 44 24 08    	movsd  0x8(%rsp),%xmm0
}
    adee:	48 83 c4 18          	add    $0x18,%rsp
  add_event (t, jump_handler, sz_jump);
    adf2:	48 8d 35 47 43 01 00 	lea    0x14347(%rip),%rsi        # 1f140 <sz_jump>
    adf9:	48 8d 3d 90 fe ff ff 	lea    -0x170(%rip),%rdi        # ac90 <jump_handler>
    ae00:	e9 9b 29 00 00       	jmpq   d7a0 <add_event>
  assert (state->has_ground);
    ae05:	48 8d 0d 60 ec 00 00 	lea    0xec60(%rip),%rcx        # 19a6c <__PRETTY_FUNCTION__.4499>
    ae0c:	ba bf 00 00 00       	mov    $0xbf,%edx
    ae11:	48 8d 35 9a eb 00 00 	lea    0xeb9a(%rip),%rsi        # 199b2 <__PRETTY_FUNCTION__.4560+0x142>
    ae18:	48 8d 3d 9b eb 00 00 	lea    0xeb9b(%rip),%rdi        # 199ba <__PRETTY_FUNCTION__.4560+0x14a>
    ae1f:	e8 bc ca ff ff       	callq  78e0 <__assert_fail@plt>
    ae24:	66 66 2e 0f 1f 84 00 	data16 nopw %cs:0x0(%rax,%rax,1)
    ae2b:	00 00 00 00 
    ae2f:	90                   	nop

000000000000ae30 <can_jump>:

int
can_jump (void)
{
    ae30:	f3 0f 1e fa          	endbr64 
  return  state->has_ground;
    ae34:	48 8b 05 ed 44 01 00 	mov    0x144ed(%rip),%rax        # 1f328 <state>
    ae3b:	8b 40 10             	mov    0x10(%rax),%eax
}
    ae3e:	c3                   	retq   
    ae3f:	90                   	nop

000000000000ae40 <crash_check>:
 */

int
crash_check (void)
/* Return true, if the car crashed.  */
{
    ae40:	f3 0f 1e fa          	endbr64 
	//return 0;
  if (! state->has_ground)  return 0;
    ae44:	48 8b 05 dd 44 01 00 	mov    0x144dd(%rip),%rax        # 1f328 <state>
    ae4b:	8b 40 10             	mov    0x10(%rax),%eax
    ae4e:	85 c0                	test   %eax,%eax
    ae50:	74 1e                	je     ae70 <crash_check+0x30>
  if (ground2[car_x+1] == ' ' || ground2[car_x+5] == ' ') {
    ae52:	48 8b 0d ff 5f 01 00 	mov    0x15fff(%rip),%rcx        # 20e58 <ground2>
    ae59:	48 63 15 08 60 01 00 	movslq 0x16008(%rip),%rdx        # 20e68 <car_x>
    ae60:	80 7c 11 01 20       	cmpb   $0x20,0x1(%rcx,%rdx,1)
    ae65:	74 11                	je     ae78 <crash_check+0x38>
  if (! state->has_ground)  return 0;
    ae67:	31 c0                	xor    %eax,%eax
  if (ground2[car_x+1] == ' ' || ground2[car_x+5] == ' ') {
    ae69:	80 7c 11 05 20       	cmpb   $0x20,0x5(%rcx,%rdx,1)
    ae6e:	74 08                	je     ae78 <crash_check+0x38>
    start_wheel ();
    return 1;
  }

  return  0;
}
    ae70:	c3                   	retq   
    ae71:	0f 1f 80 00 00 00 00 	nopl   0x0(%rax)
{
    ae78:	48 83 ec 08          	sub    $0x8,%rsp
    remove_event (jump_handler);
    ae7c:	48 8d 3d 0d fe ff ff 	lea    -0x1f3(%rip),%rdi        # ac90 <jump_handler>
    ae83:	e8 98 29 00 00       	callq  d820 <remove_event>
    state = sz_crash;
    ae88:	48 8d 05 81 42 01 00 	lea    0x14281(%rip),%rax        # 1f110 <sz_crash>
    ae8f:	48 89 05 92 44 01 00 	mov    %rax,0x14492(%rip)        # 1f328 <state>
    print_buggy ();
    ae96:	e8 25 fb ff ff       	callq  a9c0 <print_buggy>
    start_wheel ();
    ae9b:	e8 60 fa ff ff       	callq  a900 <start_wheel>
    return 1;
    aea0:	b8 01 00 00 00       	mov    $0x1,%eax
}
    aea5:	48 83 c4 08          	add    $0x8,%rsp
    aea9:	c3                   	retq   
    aeaa:	66 0f 1f 44 00 00    	nopw   0x0(%rax,%rax,1)

000000000000aeb0 <car_meteor_hit>:

int
car_meteor_hit (int x)
/* Return true, if the car is down and occupies position X.
 * Then the car crashes immediately.  */
{
    aeb0:	f3 0f 1e fa          	endbr64 
    start_wheel ();
    crash_detected = 1;
    return 1;
  }

  return  0;
    aeb4:	31 c0                	xor    %eax,%eax
  if (car_y == 5 && x >= car_x && x < car_x+7) {
    aeb6:	83 3d af 5f 01 00 05 	cmpl   $0x5,0x15faf(%rip)        # 20e6c <car_y>
    aebd:	74 01                	je     aec0 <car_meteor_hit+0x10>
}
    aebf:	c3                   	retq   
  if (car_y == 5 && x >= car_x && x < car_x+7) {
    aec0:	8b 15 a2 5f 01 00    	mov    0x15fa2(%rip),%edx        # 20e68 <car_x>
